
obj/kern/kernel:     file format elf64-x86-64


Disassembly of section .bootstrap:

0000000001500000 <_head64>:

.text
.globl _head64
_head64:
  # Disable interrupts.
  cli
 1500000:	fa                   	cli    

  # Save Loader_block pointer from Bootloader.c in r12.
  movq %rcx,%r12
 1500001:	49 89 cc             	mov    %rcx,%r12

  # Build an early boot pml4 at pml4phys (physical = virtual for it).

  # Initialize the page tables.
  movl $pml4,%edi
 1500004:	bf 00 10 50 01       	mov    $0x1501000,%edi
  xorl %eax,%eax
 1500009:	31 c0                	xor    %eax,%eax
  movl $PML_SIZE,%ecx  # moving these many words to the 11 pages
 150000b:	b9 00 2c 00 00       	mov    $0x2c00,%ecx
  rep stosl
 1500010:	f3 ab                	rep stos %eax,%es:(%rdi)

  # Creating a 4G boot page table...
  # Setting the 4-level page table with only the second entry needed (PML4).
  movl $pml4,%eax
 1500012:	b8 00 10 50 01       	mov    $0x1501000,%eax
  movl $pdpt1, %ebx
 1500017:	bb 00 20 50 01       	mov    $0x1502000,%ebx
  orl $PTE_P,%ebx
 150001c:	83 cb 01             	or     $0x1,%ebx
  orl $PTE_W,%ebx
 150001f:	83 cb 02             	or     $0x2,%ebx
  movl %ebx,(%eax)
 1500022:	67 89 18             	mov    %ebx,(%eax)

  movl $pdpt2, %ebx
 1500025:	bb 00 30 50 01       	mov    $0x1503000,%ebx
  orl $PTE_P,%ebx
 150002a:	83 cb 01             	or     $0x1,%ebx
  orl $PTE_W,%ebx
 150002d:	83 cb 02             	or     $0x2,%ebx
  movl %ebx,0x8(%eax)
 1500030:	67 89 58 08          	mov    %ebx,0x8(%eax)

  # Setting the 3rd level page table (PDPE).
  # 4 entries (counter in ecx), point to the next four physical pages (pgdirs).
  # pgdirs in 0xa0000--0xd000.
  movl $pdpt1,%edi
 1500034:	bf 00 20 50 01       	mov    $0x1502000,%edi
  movl $pde1,%ebx
 1500039:	bb 00 40 50 01       	mov    $0x1504000,%ebx
  orl $PTE_P,%ebx
 150003e:	83 cb 01             	or     $0x1,%ebx
  orl $PTE_W,%ebx
 1500041:	83 cb 02             	or     $0x2,%ebx
  movl %ebx,(%edi)
 1500044:	67 89 1f             	mov    %ebx,(%edi)

  movl $pdpt2,%edi
 1500047:	bf 00 30 50 01       	mov    $0x1503000,%edi
  movl $pde2,%ebx
 150004c:	bb 00 50 50 01       	mov    $0x1505000,%ebx
  orl $PTE_P,%ebx
 1500051:	83 cb 01             	or     $0x1,%ebx
  orl $PTE_W,%ebx
 1500054:	83 cb 02             	or     $0x2,%ebx
  # 2nd entry - 0x8040000000
  movl %ebx,0x8(%edi)
 1500057:	67 89 5f 08          	mov    %ebx,0x8(%edi)

  # Setting the pgdir so that the LA=PA.
  # Mapping first 1024mb of mem at KERNBASE.
  movl $512,%ecx
 150005b:	b9 00 02 00 00       	mov    $0x200,%ecx
  # Start at the end and work backwards
  movl $pde1,%edi
 1500060:	bf 00 40 50 01       	mov    $0x1504000,%edi
  movl $pde2,%ebx
 1500065:	bb 00 50 50 01       	mov    $0x1505000,%ebx
  # 1st entry - 0x8040000000

  # PTE_P|PTE_W|PTE_MBZ
  movl $0x00000183,%eax
 150006a:	b8 83 01 00 00       	mov    $0x183,%eax
1:
  movl %eax,(%edi)
 150006f:	67 89 07             	mov    %eax,(%edi)
  movl %eax,(%ebx)
 1500072:	67 89 03             	mov    %eax,(%ebx)
  addl $0x8,%edi
 1500075:	83 c7 08             	add    $0x8,%edi
  addl $0x8,%ebx
 1500078:	83 c3 08             	add    $0x8,%ebx
  addl $0x00200000,%eax
 150007b:	05 00 00 20 00       	add    $0x200000,%eax
  subl $1,%ecx
 1500080:	83 e9 01             	sub    $0x1,%ecx
  cmp $0x0,%ecx
 1500083:	83 f9 00             	cmp    $0x0,%ecx
  jne 1b
 1500086:	75 e7                	jne    150006f <_head64+0x6f>

  # Update CR3 register.
  movq $pml4,%rax
 1500088:	48 c7 c0 00 10 50 01 	mov    $0x1501000,%rax
  movq %rax, %cr3
 150008f:	0f 22 d8             	mov    %rax,%cr3

  # Transition to high mem entry code and pass LoadParams address.
  movabs $entry,%rax
 1500092:	48 b8 00 00 60 41 80 	movabs $0x8041600000,%rax
 1500099:	00 00 00 
  movq %r12, %rcx
 150009c:	4c 89 e1             	mov    %r12,%rcx
  jmpq *%rax
 150009f:	ff e0                	jmpq   *%rax
 15000a1:	66 2e 0f 1f 84 00 00 	nopw   %cs:0x0(%rax,%rax,1)
 15000a8:	00 00 00 
 15000ab:	66 2e 0f 1f 84 00 00 	nopw   %cs:0x0(%rax,%rax,1)
 15000b2:	00 00 00 
 15000b5:	66 2e 0f 1f 84 00 00 	nopw   %cs:0x0(%rax,%rax,1)
 15000bc:	00 00 00 
 15000bf:	66 2e 0f 1f 84 00 00 	nopw   %cs:0x0(%rax,%rax,1)
 15000c6:	00 00 00 
 15000c9:	66 2e 0f 1f 84 00 00 	nopw   %cs:0x0(%rax,%rax,1)
 15000d0:	00 00 00 
 15000d3:	66 2e 0f 1f 84 00 00 	nopw   %cs:0x0(%rax,%rax,1)
 15000da:	00 00 00 
 15000dd:	66 2e 0f 1f 84 00 00 	nopw   %cs:0x0(%rax,%rax,1)
 15000e4:	00 00 00 
 15000e7:	66 2e 0f 1f 84 00 00 	nopw   %cs:0x0(%rax,%rax,1)
 15000ee:	00 00 00 
 15000f1:	66 2e 0f 1f 84 00 00 	nopw   %cs:0x0(%rax,%rax,1)
 15000f8:	00 00 00 
 15000fb:	66 2e 0f 1f 84 00 00 	nopw   %cs:0x0(%rax,%rax,1)
 1500102:	00 00 00 
 1500105:	66 2e 0f 1f 84 00 00 	nopw   %cs:0x0(%rax,%rax,1)
 150010c:	00 00 00 
 150010f:	66 2e 0f 1f 84 00 00 	nopw   %cs:0x0(%rax,%rax,1)
 1500116:	00 00 00 
 1500119:	66 2e 0f 1f 84 00 00 	nopw   %cs:0x0(%rax,%rax,1)
 1500120:	00 00 00 
 1500123:	66 2e 0f 1f 84 00 00 	nopw   %cs:0x0(%rax,%rax,1)
 150012a:	00 00 00 
 150012d:	66 2e 0f 1f 84 00 00 	nopw   %cs:0x0(%rax,%rax,1)
 1500134:	00 00 00 
 1500137:	66 2e 0f 1f 84 00 00 	nopw   %cs:0x0(%rax,%rax,1)
 150013e:	00 00 00 
 1500141:	66 2e 0f 1f 84 00 00 	nopw   %cs:0x0(%rax,%rax,1)
 1500148:	00 00 00 
 150014b:	66 2e 0f 1f 84 00 00 	nopw   %cs:0x0(%rax,%rax,1)
 1500152:	00 00 00 
 1500155:	66 2e 0f 1f 84 00 00 	nopw   %cs:0x0(%rax,%rax,1)
 150015c:	00 00 00 
 150015f:	66 2e 0f 1f 84 00 00 	nopw   %cs:0x0(%rax,%rax,1)
 1500166:	00 00 00 
 1500169:	66 2e 0f 1f 84 00 00 	nopw   %cs:0x0(%rax,%rax,1)
 1500170:	00 00 00 
 1500173:	66 2e 0f 1f 84 00 00 	nopw   %cs:0x0(%rax,%rax,1)
 150017a:	00 00 00 
 150017d:	66 2e 0f 1f 84 00 00 	nopw   %cs:0x0(%rax,%rax,1)
 1500184:	00 00 00 
 1500187:	66 2e 0f 1f 84 00 00 	nopw   %cs:0x0(%rax,%rax,1)
 150018e:	00 00 00 
 1500191:	66 2e 0f 1f 84 00 00 	nopw   %cs:0x0(%rax,%rax,1)
 1500198:	00 00 00 
 150019b:	66 2e 0f 1f 84 00 00 	nopw   %cs:0x0(%rax,%rax,1)
 15001a2:	00 00 00 
 15001a5:	66 2e 0f 1f 84 00 00 	nopw   %cs:0x0(%rax,%rax,1)
 15001ac:	00 00 00 
 15001af:	66 2e 0f 1f 84 00 00 	nopw   %cs:0x0(%rax,%rax,1)
 15001b6:	00 00 00 
 15001b9:	66 2e 0f 1f 84 00 00 	nopw   %cs:0x0(%rax,%rax,1)
 15001c0:	00 00 00 
 15001c3:	66 2e 0f 1f 84 00 00 	nopw   %cs:0x0(%rax,%rax,1)
 15001ca:	00 00 00 
 15001cd:	66 2e 0f 1f 84 00 00 	nopw   %cs:0x0(%rax,%rax,1)
 15001d4:	00 00 00 
 15001d7:	66 2e 0f 1f 84 00 00 	nopw   %cs:0x0(%rax,%rax,1)
 15001de:	00 00 00 
 15001e1:	66 2e 0f 1f 84 00 00 	nopw   %cs:0x0(%rax,%rax,1)
 15001e8:	00 00 00 
 15001eb:	66 2e 0f 1f 84 00 00 	nopw   %cs:0x0(%rax,%rax,1)
 15001f2:	00 00 00 
 15001f5:	66 2e 0f 1f 84 00 00 	nopw   %cs:0x0(%rax,%rax,1)
 15001fc:	00 00 00 
 15001ff:	66 2e 0f 1f 84 00 00 	nopw   %cs:0x0(%rax,%rax,1)
 1500206:	00 00 00 
 1500209:	66 2e 0f 1f 84 00 00 	nopw   %cs:0x0(%rax,%rax,1)
 1500210:	00 00 00 
 1500213:	66 2e 0f 1f 84 00 00 	nopw   %cs:0x0(%rax,%rax,1)
 150021a:	00 00 00 
 150021d:	66 2e 0f 1f 84 00 00 	nopw   %cs:0x0(%rax,%rax,1)
 1500224:	00 00 00 
 1500227:	66 2e 0f 1f 84 00 00 	nopw   %cs:0x0(%rax,%rax,1)
 150022e:	00 00 00 
 1500231:	66 2e 0f 1f 84 00 00 	nopw   %cs:0x0(%rax,%rax,1)
 1500238:	00 00 00 
 150023b:	66 2e 0f 1f 84 00 00 	nopw   %cs:0x0(%rax,%rax,1)
 1500242:	00 00 00 
 1500245:	66 2e 0f 1f 84 00 00 	nopw   %cs:0x0(%rax,%rax,1)
 150024c:	00 00 00 
 150024f:	66 2e 0f 1f 84 00 00 	nopw   %cs:0x0(%rax,%rax,1)
 1500256:	00 00 00 
 1500259:	66 2e 0f 1f 84 00 00 	nopw   %cs:0x0(%rax,%rax,1)
 1500260:	00 00 00 
 1500263:	66 2e 0f 1f 84 00 00 	nopw   %cs:0x0(%rax,%rax,1)
 150026a:	00 00 00 
 150026d:	66 2e 0f 1f 84 00 00 	nopw   %cs:0x0(%rax,%rax,1)
 1500274:	00 00 00 
 1500277:	66 2e 0f 1f 84 00 00 	nopw   %cs:0x0(%rax,%rax,1)
 150027e:	00 00 00 
 1500281:	66 2e 0f 1f 84 00 00 	nopw   %cs:0x0(%rax,%rax,1)
 1500288:	00 00 00 
 150028b:	66 2e 0f 1f 84 00 00 	nopw   %cs:0x0(%rax,%rax,1)
 1500292:	00 00 00 
 1500295:	66 2e 0f 1f 84 00 00 	nopw   %cs:0x0(%rax,%rax,1)
 150029c:	00 00 00 
 150029f:	66 2e 0f 1f 84 00 00 	nopw   %cs:0x0(%rax,%rax,1)
 15002a6:	00 00 00 
 15002a9:	66 2e 0f 1f 84 00 00 	nopw   %cs:0x0(%rax,%rax,1)
 15002b0:	00 00 00 
 15002b3:	66 2e 0f 1f 84 00 00 	nopw   %cs:0x0(%rax,%rax,1)
 15002ba:	00 00 00 
 15002bd:	66 2e 0f 1f 84 00 00 	nopw   %cs:0x0(%rax,%rax,1)
 15002c4:	00 00 00 
 15002c7:	66 2e 0f 1f 84 00 00 	nopw   %cs:0x0(%rax,%rax,1)
 15002ce:	00 00 00 
 15002d1:	66 2e 0f 1f 84 00 00 	nopw   %cs:0x0(%rax,%rax,1)
 15002d8:	00 00 00 
 15002db:	66 2e 0f 1f 84 00 00 	nopw   %cs:0x0(%rax,%rax,1)
 15002e2:	00 00 00 
 15002e5:	66 2e 0f 1f 84 00 00 	nopw   %cs:0x0(%rax,%rax,1)
 15002ec:	00 00 00 
 15002ef:	66 2e 0f 1f 84 00 00 	nopw   %cs:0x0(%rax,%rax,1)
 15002f6:	00 00 00 
 15002f9:	66 2e 0f 1f 84 00 00 	nopw   %cs:0x0(%rax,%rax,1)
 1500300:	00 00 00 
 1500303:	66 2e 0f 1f 84 00 00 	nopw   %cs:0x0(%rax,%rax,1)
 150030a:	00 00 00 
 150030d:	66 2e 0f 1f 84 00 00 	nopw   %cs:0x0(%rax,%rax,1)
 1500314:	00 00 00 
 1500317:	66 2e 0f 1f 84 00 00 	nopw   %cs:0x0(%rax,%rax,1)
 150031e:	00 00 00 
 1500321:	66 2e 0f 1f 84 00 00 	nopw   %cs:0x0(%rax,%rax,1)
 1500328:	00 00 00 
 150032b:	66 2e 0f 1f 84 00 00 	nopw   %cs:0x0(%rax,%rax,1)
 1500332:	00 00 00 
 1500335:	66 2e 0f 1f 84 00 00 	nopw   %cs:0x0(%rax,%rax,1)
 150033c:	00 00 00 
 150033f:	66 2e 0f 1f 84 00 00 	nopw   %cs:0x0(%rax,%rax,1)
 1500346:	00 00 00 
 1500349:	66 2e 0f 1f 84 00 00 	nopw   %cs:0x0(%rax,%rax,1)
 1500350:	00 00 00 
 1500353:	66 2e 0f 1f 84 00 00 	nopw   %cs:0x0(%rax,%rax,1)
 150035a:	00 00 00 
 150035d:	66 2e 0f 1f 84 00 00 	nopw   %cs:0x0(%rax,%rax,1)
 1500364:	00 00 00 
 1500367:	66 2e 0f 1f 84 00 00 	nopw   %cs:0x0(%rax,%rax,1)
 150036e:	00 00 00 
 1500371:	66 2e 0f 1f 84 00 00 	nopw   %cs:0x0(%rax,%rax,1)
 1500378:	00 00 00 
 150037b:	66 2e 0f 1f 84 00 00 	nopw   %cs:0x0(%rax,%rax,1)
 1500382:	00 00 00 
 1500385:	66 2e 0f 1f 84 00 00 	nopw   %cs:0x0(%rax,%rax,1)
 150038c:	00 00 00 
 150038f:	66 2e 0f 1f 84 00 00 	nopw   %cs:0x0(%rax,%rax,1)
 1500396:	00 00 00 
 1500399:	66 2e 0f 1f 84 00 00 	nopw   %cs:0x0(%rax,%rax,1)
 15003a0:	00 00 00 
 15003a3:	66 2e 0f 1f 84 00 00 	nopw   %cs:0x0(%rax,%rax,1)
 15003aa:	00 00 00 
 15003ad:	66 2e 0f 1f 84 00 00 	nopw   %cs:0x0(%rax,%rax,1)
 15003b4:	00 00 00 
 15003b7:	66 2e 0f 1f 84 00 00 	nopw   %cs:0x0(%rax,%rax,1)
 15003be:	00 00 00 
 15003c1:	66 2e 0f 1f 84 00 00 	nopw   %cs:0x0(%rax,%rax,1)
 15003c8:	00 00 00 
 15003cb:	66 2e 0f 1f 84 00 00 	nopw   %cs:0x0(%rax,%rax,1)
 15003d2:	00 00 00 
 15003d5:	66 2e 0f 1f 84 00 00 	nopw   %cs:0x0(%rax,%rax,1)
 15003dc:	00 00 00 
 15003df:	66 2e 0f 1f 84 00 00 	nopw   %cs:0x0(%rax,%rax,1)
 15003e6:	00 00 00 
 15003e9:	66 2e 0f 1f 84 00 00 	nopw   %cs:0x0(%rax,%rax,1)
 15003f0:	00 00 00 
 15003f3:	66 2e 0f 1f 84 00 00 	nopw   %cs:0x0(%rax,%rax,1)
 15003fa:	00 00 00 
 15003fd:	66 2e 0f 1f 84 00 00 	nopw   %cs:0x0(%rax,%rax,1)
 1500404:	00 00 00 
 1500407:	66 2e 0f 1f 84 00 00 	nopw   %cs:0x0(%rax,%rax,1)
 150040e:	00 00 00 
 1500411:	66 2e 0f 1f 84 00 00 	nopw   %cs:0x0(%rax,%rax,1)
 1500418:	00 00 00 
 150041b:	66 2e 0f 1f 84 00 00 	nopw   %cs:0x0(%rax,%rax,1)
 1500422:	00 00 00 
 1500425:	66 2e 0f 1f 84 00 00 	nopw   %cs:0x0(%rax,%rax,1)
 150042c:	00 00 00 
 150042f:	66 2e 0f 1f 84 00 00 	nopw   %cs:0x0(%rax,%rax,1)
 1500436:	00 00 00 
 1500439:	66 2e 0f 1f 84 00 00 	nopw   %cs:0x0(%rax,%rax,1)
 1500440:	00 00 00 
 1500443:	66 2e 0f 1f 84 00 00 	nopw   %cs:0x0(%rax,%rax,1)
 150044a:	00 00 00 
 150044d:	66 2e 0f 1f 84 00 00 	nopw   %cs:0x0(%rax,%rax,1)
 1500454:	00 00 00 
 1500457:	66 2e 0f 1f 84 00 00 	nopw   %cs:0x0(%rax,%rax,1)
 150045e:	00 00 00 
 1500461:	66 2e 0f 1f 84 00 00 	nopw   %cs:0x0(%rax,%rax,1)
 1500468:	00 00 00 
 150046b:	66 2e 0f 1f 84 00 00 	nopw   %cs:0x0(%rax,%rax,1)
 1500472:	00 00 00 
 1500475:	66 2e 0f 1f 84 00 00 	nopw   %cs:0x0(%rax,%rax,1)
 150047c:	00 00 00 
 150047f:	66 2e 0f 1f 84 00 00 	nopw   %cs:0x0(%rax,%rax,1)
 1500486:	00 00 00 
 1500489:	66 2e 0f 1f 84 00 00 	nopw   %cs:0x0(%rax,%rax,1)
 1500490:	00 00 00 
 1500493:	66 2e 0f 1f 84 00 00 	nopw   %cs:0x0(%rax,%rax,1)
 150049a:	00 00 00 
 150049d:	66 2e 0f 1f 84 00 00 	nopw   %cs:0x0(%rax,%rax,1)
 15004a4:	00 00 00 
 15004a7:	66 2e 0f 1f 84 00 00 	nopw   %cs:0x0(%rax,%rax,1)
 15004ae:	00 00 00 
 15004b1:	66 2e 0f 1f 84 00 00 	nopw   %cs:0x0(%rax,%rax,1)
 15004b8:	00 00 00 
 15004bb:	66 2e 0f 1f 84 00 00 	nopw   %cs:0x0(%rax,%rax,1)
 15004c2:	00 00 00 
 15004c5:	66 2e 0f 1f 84 00 00 	nopw   %cs:0x0(%rax,%rax,1)
 15004cc:	00 00 00 
 15004cf:	66 2e 0f 1f 84 00 00 	nopw   %cs:0x0(%rax,%rax,1)
 15004d6:	00 00 00 
 15004d9:	66 2e 0f 1f 84 00 00 	nopw   %cs:0x0(%rax,%rax,1)
 15004e0:	00 00 00 
 15004e3:	66 2e 0f 1f 84 00 00 	nopw   %cs:0x0(%rax,%rax,1)
 15004ea:	00 00 00 
 15004ed:	66 2e 0f 1f 84 00 00 	nopw   %cs:0x0(%rax,%rax,1)
 15004f4:	00 00 00 
 15004f7:	66 2e 0f 1f 84 00 00 	nopw   %cs:0x0(%rax,%rax,1)
 15004fe:	00 00 00 
 1500501:	66 2e 0f 1f 84 00 00 	nopw   %cs:0x0(%rax,%rax,1)
 1500508:	00 00 00 
 150050b:	66 2e 0f 1f 84 00 00 	nopw   %cs:0x0(%rax,%rax,1)
 1500512:	00 00 00 
 1500515:	66 2e 0f 1f 84 00 00 	nopw   %cs:0x0(%rax,%rax,1)
 150051c:	00 00 00 
 150051f:	66 2e 0f 1f 84 00 00 	nopw   %cs:0x0(%rax,%rax,1)
 1500526:	00 00 00 
 1500529:	66 2e 0f 1f 84 00 00 	nopw   %cs:0x0(%rax,%rax,1)
 1500530:	00 00 00 
 1500533:	66 2e 0f 1f 84 00 00 	nopw   %cs:0x0(%rax,%rax,1)
 150053a:	00 00 00 
 150053d:	66 2e 0f 1f 84 00 00 	nopw   %cs:0x0(%rax,%rax,1)
 1500544:	00 00 00 
 1500547:	66 2e 0f 1f 84 00 00 	nopw   %cs:0x0(%rax,%rax,1)
 150054e:	00 00 00 
 1500551:	66 2e 0f 1f 84 00 00 	nopw   %cs:0x0(%rax,%rax,1)
 1500558:	00 00 00 
 150055b:	66 2e 0f 1f 84 00 00 	nopw   %cs:0x0(%rax,%rax,1)
 1500562:	00 00 00 
 1500565:	66 2e 0f 1f 84 00 00 	nopw   %cs:0x0(%rax,%rax,1)
 150056c:	00 00 00 
 150056f:	66 2e 0f 1f 84 00 00 	nopw   %cs:0x0(%rax,%rax,1)
 1500576:	00 00 00 
 1500579:	66 2e 0f 1f 84 00 00 	nopw   %cs:0x0(%rax,%rax,1)
 1500580:	00 00 00 
 1500583:	66 2e 0f 1f 84 00 00 	nopw   %cs:0x0(%rax,%rax,1)
 150058a:	00 00 00 
 150058d:	66 2e 0f 1f 84 00 00 	nopw   %cs:0x0(%rax,%rax,1)
 1500594:	00 00 00 
 1500597:	66 2e 0f 1f 84 00 00 	nopw   %cs:0x0(%rax,%rax,1)
 150059e:	00 00 00 
 15005a1:	66 2e 0f 1f 84 00 00 	nopw   %cs:0x0(%rax,%rax,1)
 15005a8:	00 00 00 
 15005ab:	66 2e 0f 1f 84 00 00 	nopw   %cs:0x0(%rax,%rax,1)
 15005b2:	00 00 00 
 15005b5:	66 2e 0f 1f 84 00 00 	nopw   %cs:0x0(%rax,%rax,1)
 15005bc:	00 00 00 
 15005bf:	66 2e 0f 1f 84 00 00 	nopw   %cs:0x0(%rax,%rax,1)
 15005c6:	00 00 00 
 15005c9:	66 2e 0f 1f 84 00 00 	nopw   %cs:0x0(%rax,%rax,1)
 15005d0:	00 00 00 
 15005d3:	66 2e 0f 1f 84 00 00 	nopw   %cs:0x0(%rax,%rax,1)
 15005da:	00 00 00 
 15005dd:	66 2e 0f 1f 84 00 00 	nopw   %cs:0x0(%rax,%rax,1)
 15005e4:	00 00 00 
 15005e7:	66 2e 0f 1f 84 00 00 	nopw   %cs:0x0(%rax,%rax,1)
 15005ee:	00 00 00 
 15005f1:	66 2e 0f 1f 84 00 00 	nopw   %cs:0x0(%rax,%rax,1)
 15005f8:	00 00 00 
 15005fb:	66 2e 0f 1f 84 00 00 	nopw   %cs:0x0(%rax,%rax,1)
 1500602:	00 00 00 
 1500605:	66 2e 0f 1f 84 00 00 	nopw   %cs:0x0(%rax,%rax,1)
 150060c:	00 00 00 
 150060f:	66 2e 0f 1f 84 00 00 	nopw   %cs:0x0(%rax,%rax,1)
 1500616:	00 00 00 
 1500619:	66 2e 0f 1f 84 00 00 	nopw   %cs:0x0(%rax,%rax,1)
 1500620:	00 00 00 
 1500623:	66 2e 0f 1f 84 00 00 	nopw   %cs:0x0(%rax,%rax,1)
 150062a:	00 00 00 
 150062d:	66 2e 0f 1f 84 00 00 	nopw   %cs:0x0(%rax,%rax,1)
 1500634:	00 00 00 
 1500637:	66 2e 0f 1f 84 00 00 	nopw   %cs:0x0(%rax,%rax,1)
 150063e:	00 00 00 
 1500641:	66 2e 0f 1f 84 00 00 	nopw   %cs:0x0(%rax,%rax,1)
 1500648:	00 00 00 
 150064b:	66 2e 0f 1f 84 00 00 	nopw   %cs:0x0(%rax,%rax,1)
 1500652:	00 00 00 
 1500655:	66 2e 0f 1f 84 00 00 	nopw   %cs:0x0(%rax,%rax,1)
 150065c:	00 00 00 
 150065f:	66 2e 0f 1f 84 00 00 	nopw   %cs:0x0(%rax,%rax,1)
 1500666:	00 00 00 
 1500669:	66 2e 0f 1f 84 00 00 	nopw   %cs:0x0(%rax,%rax,1)
 1500670:	00 00 00 
 1500673:	66 2e 0f 1f 84 00 00 	nopw   %cs:0x0(%rax,%rax,1)
 150067a:	00 00 00 
 150067d:	66 2e 0f 1f 84 00 00 	nopw   %cs:0x0(%rax,%rax,1)
 1500684:	00 00 00 
 1500687:	66 2e 0f 1f 84 00 00 	nopw   %cs:0x0(%rax,%rax,1)
 150068e:	00 00 00 
 1500691:	66 2e 0f 1f 84 00 00 	nopw   %cs:0x0(%rax,%rax,1)
 1500698:	00 00 00 
 150069b:	66 2e 0f 1f 84 00 00 	nopw   %cs:0x0(%rax,%rax,1)
 15006a2:	00 00 00 
 15006a5:	66 2e 0f 1f 84 00 00 	nopw   %cs:0x0(%rax,%rax,1)
 15006ac:	00 00 00 
 15006af:	66 2e 0f 1f 84 00 00 	nopw   %cs:0x0(%rax,%rax,1)
 15006b6:	00 00 00 
 15006b9:	66 2e 0f 1f 84 00 00 	nopw   %cs:0x0(%rax,%rax,1)
 15006c0:	00 00 00 
 15006c3:	66 2e 0f 1f 84 00 00 	nopw   %cs:0x0(%rax,%rax,1)
 15006ca:	00 00 00 
 15006cd:	66 2e 0f 1f 84 00 00 	nopw   %cs:0x0(%rax,%rax,1)
 15006d4:	00 00 00 
 15006d7:	66 2e 0f 1f 84 00 00 	nopw   %cs:0x0(%rax,%rax,1)
 15006de:	00 00 00 
 15006e1:	66 2e 0f 1f 84 00 00 	nopw   %cs:0x0(%rax,%rax,1)
 15006e8:	00 00 00 
 15006eb:	66 2e 0f 1f 84 00 00 	nopw   %cs:0x0(%rax,%rax,1)
 15006f2:	00 00 00 
 15006f5:	66 2e 0f 1f 84 00 00 	nopw   %cs:0x0(%rax,%rax,1)
 15006fc:	00 00 00 
 15006ff:	66 2e 0f 1f 84 00 00 	nopw   %cs:0x0(%rax,%rax,1)
 1500706:	00 00 00 
 1500709:	66 2e 0f 1f 84 00 00 	nopw   %cs:0x0(%rax,%rax,1)
 1500710:	00 00 00 
 1500713:	66 2e 0f 1f 84 00 00 	nopw   %cs:0x0(%rax,%rax,1)
 150071a:	00 00 00 
 150071d:	66 2e 0f 1f 84 00 00 	nopw   %cs:0x0(%rax,%rax,1)
 1500724:	00 00 00 
 1500727:	66 2e 0f 1f 84 00 00 	nopw   %cs:0x0(%rax,%rax,1)
 150072e:	00 00 00 
 1500731:	66 2e 0f 1f 84 00 00 	nopw   %cs:0x0(%rax,%rax,1)
 1500738:	00 00 00 
 150073b:	66 2e 0f 1f 84 00 00 	nopw   %cs:0x0(%rax,%rax,1)
 1500742:	00 00 00 
 1500745:	66 2e 0f 1f 84 00 00 	nopw   %cs:0x0(%rax,%rax,1)
 150074c:	00 00 00 
 150074f:	66 2e 0f 1f 84 00 00 	nopw   %cs:0x0(%rax,%rax,1)
 1500756:	00 00 00 
 1500759:	66 2e 0f 1f 84 00 00 	nopw   %cs:0x0(%rax,%rax,1)
 1500760:	00 00 00 
 1500763:	66 2e 0f 1f 84 00 00 	nopw   %cs:0x0(%rax,%rax,1)
 150076a:	00 00 00 
 150076d:	66 2e 0f 1f 84 00 00 	nopw   %cs:0x0(%rax,%rax,1)
 1500774:	00 00 00 
 1500777:	66 2e 0f 1f 84 00 00 	nopw   %cs:0x0(%rax,%rax,1)
 150077e:	00 00 00 
 1500781:	66 2e 0f 1f 84 00 00 	nopw   %cs:0x0(%rax,%rax,1)
 1500788:	00 00 00 
 150078b:	66 2e 0f 1f 84 00 00 	nopw   %cs:0x0(%rax,%rax,1)
 1500792:	00 00 00 
 1500795:	66 2e 0f 1f 84 00 00 	nopw   %cs:0x0(%rax,%rax,1)
 150079c:	00 00 00 
 150079f:	66 2e 0f 1f 84 00 00 	nopw   %cs:0x0(%rax,%rax,1)
 15007a6:	00 00 00 
 15007a9:	66 2e 0f 1f 84 00 00 	nopw   %cs:0x0(%rax,%rax,1)
 15007b0:	00 00 00 
 15007b3:	66 2e 0f 1f 84 00 00 	nopw   %cs:0x0(%rax,%rax,1)
 15007ba:	00 00 00 
 15007bd:	66 2e 0f 1f 84 00 00 	nopw   %cs:0x0(%rax,%rax,1)
 15007c4:	00 00 00 
 15007c7:	66 2e 0f 1f 84 00 00 	nopw   %cs:0x0(%rax,%rax,1)
 15007ce:	00 00 00 
 15007d1:	66 2e 0f 1f 84 00 00 	nopw   %cs:0x0(%rax,%rax,1)
 15007d8:	00 00 00 
 15007db:	66 2e 0f 1f 84 00 00 	nopw   %cs:0x0(%rax,%rax,1)
 15007e2:	00 00 00 
 15007e5:	66 2e 0f 1f 84 00 00 	nopw   %cs:0x0(%rax,%rax,1)
 15007ec:	00 00 00 
 15007ef:	66 2e 0f 1f 84 00 00 	nopw   %cs:0x0(%rax,%rax,1)
 15007f6:	00 00 00 
 15007f9:	66 2e 0f 1f 84 00 00 	nopw   %cs:0x0(%rax,%rax,1)
 1500800:	00 00 00 
 1500803:	66 2e 0f 1f 84 00 00 	nopw   %cs:0x0(%rax,%rax,1)
 150080a:	00 00 00 
 150080d:	66 2e 0f 1f 84 00 00 	nopw   %cs:0x0(%rax,%rax,1)
 1500814:	00 00 00 
 1500817:	66 2e 0f 1f 84 00 00 	nopw   %cs:0x0(%rax,%rax,1)
 150081e:	00 00 00 
 1500821:	66 2e 0f 1f 84 00 00 	nopw   %cs:0x0(%rax,%rax,1)
 1500828:	00 00 00 
 150082b:	66 2e 0f 1f 84 00 00 	nopw   %cs:0x0(%rax,%rax,1)
 1500832:	00 00 00 
 1500835:	66 2e 0f 1f 84 00 00 	nopw   %cs:0x0(%rax,%rax,1)
 150083c:	00 00 00 
 150083f:	66 2e 0f 1f 84 00 00 	nopw   %cs:0x0(%rax,%rax,1)
 1500846:	00 00 00 
 1500849:	66 2e 0f 1f 84 00 00 	nopw   %cs:0x0(%rax,%rax,1)
 1500850:	00 00 00 
 1500853:	66 2e 0f 1f 84 00 00 	nopw   %cs:0x0(%rax,%rax,1)
 150085a:	00 00 00 
 150085d:	66 2e 0f 1f 84 00 00 	nopw   %cs:0x0(%rax,%rax,1)
 1500864:	00 00 00 
 1500867:	66 2e 0f 1f 84 00 00 	nopw   %cs:0x0(%rax,%rax,1)
 150086e:	00 00 00 
 1500871:	66 2e 0f 1f 84 00 00 	nopw   %cs:0x0(%rax,%rax,1)
 1500878:	00 00 00 
 150087b:	66 2e 0f 1f 84 00 00 	nopw   %cs:0x0(%rax,%rax,1)
 1500882:	00 00 00 
 1500885:	66 2e 0f 1f 84 00 00 	nopw   %cs:0x0(%rax,%rax,1)
 150088c:	00 00 00 
 150088f:	66 2e 0f 1f 84 00 00 	nopw   %cs:0x0(%rax,%rax,1)
 1500896:	00 00 00 
 1500899:	66 2e 0f 1f 84 00 00 	nopw   %cs:0x0(%rax,%rax,1)
 15008a0:	00 00 00 
 15008a3:	66 2e 0f 1f 84 00 00 	nopw   %cs:0x0(%rax,%rax,1)
 15008aa:	00 00 00 
 15008ad:	66 2e 0f 1f 84 00 00 	nopw   %cs:0x0(%rax,%rax,1)
 15008b4:	00 00 00 
 15008b7:	66 2e 0f 1f 84 00 00 	nopw   %cs:0x0(%rax,%rax,1)
 15008be:	00 00 00 
 15008c1:	66 2e 0f 1f 84 00 00 	nopw   %cs:0x0(%rax,%rax,1)
 15008c8:	00 00 00 
 15008cb:	66 2e 0f 1f 84 00 00 	nopw   %cs:0x0(%rax,%rax,1)
 15008d2:	00 00 00 
 15008d5:	66 2e 0f 1f 84 00 00 	nopw   %cs:0x0(%rax,%rax,1)
 15008dc:	00 00 00 
 15008df:	66 2e 0f 1f 84 00 00 	nopw   %cs:0x0(%rax,%rax,1)
 15008e6:	00 00 00 
 15008e9:	66 2e 0f 1f 84 00 00 	nopw   %cs:0x0(%rax,%rax,1)
 15008f0:	00 00 00 
 15008f3:	66 2e 0f 1f 84 00 00 	nopw   %cs:0x0(%rax,%rax,1)
 15008fa:	00 00 00 
 15008fd:	66 2e 0f 1f 84 00 00 	nopw   %cs:0x0(%rax,%rax,1)
 1500904:	00 00 00 
 1500907:	66 2e 0f 1f 84 00 00 	nopw   %cs:0x0(%rax,%rax,1)
 150090e:	00 00 00 
 1500911:	66 2e 0f 1f 84 00 00 	nopw   %cs:0x0(%rax,%rax,1)
 1500918:	00 00 00 
 150091b:	66 2e 0f 1f 84 00 00 	nopw   %cs:0x0(%rax,%rax,1)
 1500922:	00 00 00 
 1500925:	66 2e 0f 1f 84 00 00 	nopw   %cs:0x0(%rax,%rax,1)
 150092c:	00 00 00 
 150092f:	66 2e 0f 1f 84 00 00 	nopw   %cs:0x0(%rax,%rax,1)
 1500936:	00 00 00 
 1500939:	66 2e 0f 1f 84 00 00 	nopw   %cs:0x0(%rax,%rax,1)
 1500940:	00 00 00 
 1500943:	66 2e 0f 1f 84 00 00 	nopw   %cs:0x0(%rax,%rax,1)
 150094a:	00 00 00 
 150094d:	66 2e 0f 1f 84 00 00 	nopw   %cs:0x0(%rax,%rax,1)
 1500954:	00 00 00 
 1500957:	66 2e 0f 1f 84 00 00 	nopw   %cs:0x0(%rax,%rax,1)
 150095e:	00 00 00 
 1500961:	66 2e 0f 1f 84 00 00 	nopw   %cs:0x0(%rax,%rax,1)
 1500968:	00 00 00 
 150096b:	66 2e 0f 1f 84 00 00 	nopw   %cs:0x0(%rax,%rax,1)
 1500972:	00 00 00 
 1500975:	66 2e 0f 1f 84 00 00 	nopw   %cs:0x0(%rax,%rax,1)
 150097c:	00 00 00 
 150097f:	66 2e 0f 1f 84 00 00 	nopw   %cs:0x0(%rax,%rax,1)
 1500986:	00 00 00 
 1500989:	66 2e 0f 1f 84 00 00 	nopw   %cs:0x0(%rax,%rax,1)
 1500990:	00 00 00 
 1500993:	66 2e 0f 1f 84 00 00 	nopw   %cs:0x0(%rax,%rax,1)
 150099a:	00 00 00 
 150099d:	66 2e 0f 1f 84 00 00 	nopw   %cs:0x0(%rax,%rax,1)
 15009a4:	00 00 00 
 15009a7:	66 2e 0f 1f 84 00 00 	nopw   %cs:0x0(%rax,%rax,1)
 15009ae:	00 00 00 
 15009b1:	66 2e 0f 1f 84 00 00 	nopw   %cs:0x0(%rax,%rax,1)
 15009b8:	00 00 00 
 15009bb:	66 2e 0f 1f 84 00 00 	nopw   %cs:0x0(%rax,%rax,1)
 15009c2:	00 00 00 
 15009c5:	66 2e 0f 1f 84 00 00 	nopw   %cs:0x0(%rax,%rax,1)
 15009cc:	00 00 00 
 15009cf:	66 2e 0f 1f 84 00 00 	nopw   %cs:0x0(%rax,%rax,1)
 15009d6:	00 00 00 
 15009d9:	66 2e 0f 1f 84 00 00 	nopw   %cs:0x0(%rax,%rax,1)
 15009e0:	00 00 00 
 15009e3:	66 2e 0f 1f 84 00 00 	nopw   %cs:0x0(%rax,%rax,1)
 15009ea:	00 00 00 
 15009ed:	66 2e 0f 1f 84 00 00 	nopw   %cs:0x0(%rax,%rax,1)
 15009f4:	00 00 00 
 15009f7:	66 2e 0f 1f 84 00 00 	nopw   %cs:0x0(%rax,%rax,1)
 15009fe:	00 00 00 
 1500a01:	66 2e 0f 1f 84 00 00 	nopw   %cs:0x0(%rax,%rax,1)
 1500a08:	00 00 00 
 1500a0b:	66 2e 0f 1f 84 00 00 	nopw   %cs:0x0(%rax,%rax,1)
 1500a12:	00 00 00 
 1500a15:	66 2e 0f 1f 84 00 00 	nopw   %cs:0x0(%rax,%rax,1)
 1500a1c:	00 00 00 
 1500a1f:	66 2e 0f 1f 84 00 00 	nopw   %cs:0x0(%rax,%rax,1)
 1500a26:	00 00 00 
 1500a29:	66 2e 0f 1f 84 00 00 	nopw   %cs:0x0(%rax,%rax,1)
 1500a30:	00 00 00 
 1500a33:	66 2e 0f 1f 84 00 00 	nopw   %cs:0x0(%rax,%rax,1)
 1500a3a:	00 00 00 
 1500a3d:	66 2e 0f 1f 84 00 00 	nopw   %cs:0x0(%rax,%rax,1)
 1500a44:	00 00 00 
 1500a47:	66 2e 0f 1f 84 00 00 	nopw   %cs:0x0(%rax,%rax,1)
 1500a4e:	00 00 00 
 1500a51:	66 2e 0f 1f 84 00 00 	nopw   %cs:0x0(%rax,%rax,1)
 1500a58:	00 00 00 
 1500a5b:	66 2e 0f 1f 84 00 00 	nopw   %cs:0x0(%rax,%rax,1)
 1500a62:	00 00 00 
 1500a65:	66 2e 0f 1f 84 00 00 	nopw   %cs:0x0(%rax,%rax,1)
 1500a6c:	00 00 00 
 1500a6f:	66 2e 0f 1f 84 00 00 	nopw   %cs:0x0(%rax,%rax,1)
 1500a76:	00 00 00 
 1500a79:	66 2e 0f 1f 84 00 00 	nopw   %cs:0x0(%rax,%rax,1)
 1500a80:	00 00 00 
 1500a83:	66 2e 0f 1f 84 00 00 	nopw   %cs:0x0(%rax,%rax,1)
 1500a8a:	00 00 00 
 1500a8d:	66 2e 0f 1f 84 00 00 	nopw   %cs:0x0(%rax,%rax,1)
 1500a94:	00 00 00 
 1500a97:	66 2e 0f 1f 84 00 00 	nopw   %cs:0x0(%rax,%rax,1)
 1500a9e:	00 00 00 
 1500aa1:	66 2e 0f 1f 84 00 00 	nopw   %cs:0x0(%rax,%rax,1)
 1500aa8:	00 00 00 
 1500aab:	66 2e 0f 1f 84 00 00 	nopw   %cs:0x0(%rax,%rax,1)
 1500ab2:	00 00 00 
 1500ab5:	66 2e 0f 1f 84 00 00 	nopw   %cs:0x0(%rax,%rax,1)
 1500abc:	00 00 00 
 1500abf:	66 2e 0f 1f 84 00 00 	nopw   %cs:0x0(%rax,%rax,1)
 1500ac6:	00 00 00 
 1500ac9:	66 2e 0f 1f 84 00 00 	nopw   %cs:0x0(%rax,%rax,1)
 1500ad0:	00 00 00 
 1500ad3:	66 2e 0f 1f 84 00 00 	nopw   %cs:0x0(%rax,%rax,1)
 1500ada:	00 00 00 
 1500add:	66 2e 0f 1f 84 00 00 	nopw   %cs:0x0(%rax,%rax,1)
 1500ae4:	00 00 00 
 1500ae7:	66 2e 0f 1f 84 00 00 	nopw   %cs:0x0(%rax,%rax,1)
 1500aee:	00 00 00 
 1500af1:	66 2e 0f 1f 84 00 00 	nopw   %cs:0x0(%rax,%rax,1)
 1500af8:	00 00 00 
 1500afb:	66 2e 0f 1f 84 00 00 	nopw   %cs:0x0(%rax,%rax,1)
 1500b02:	00 00 00 
 1500b05:	66 2e 0f 1f 84 00 00 	nopw   %cs:0x0(%rax,%rax,1)
 1500b0c:	00 00 00 
 1500b0f:	66 2e 0f 1f 84 00 00 	nopw   %cs:0x0(%rax,%rax,1)
 1500b16:	00 00 00 
 1500b19:	66 2e 0f 1f 84 00 00 	nopw   %cs:0x0(%rax,%rax,1)
 1500b20:	00 00 00 
 1500b23:	66 2e 0f 1f 84 00 00 	nopw   %cs:0x0(%rax,%rax,1)
 1500b2a:	00 00 00 
 1500b2d:	66 2e 0f 1f 84 00 00 	nopw   %cs:0x0(%rax,%rax,1)
 1500b34:	00 00 00 
 1500b37:	66 2e 0f 1f 84 00 00 	nopw   %cs:0x0(%rax,%rax,1)
 1500b3e:	00 00 00 
 1500b41:	66 2e 0f 1f 84 00 00 	nopw   %cs:0x0(%rax,%rax,1)
 1500b48:	00 00 00 
 1500b4b:	66 2e 0f 1f 84 00 00 	nopw   %cs:0x0(%rax,%rax,1)
 1500b52:	00 00 00 
 1500b55:	66 2e 0f 1f 84 00 00 	nopw   %cs:0x0(%rax,%rax,1)
 1500b5c:	00 00 00 
 1500b5f:	66 2e 0f 1f 84 00 00 	nopw   %cs:0x0(%rax,%rax,1)
 1500b66:	00 00 00 
 1500b69:	66 2e 0f 1f 84 00 00 	nopw   %cs:0x0(%rax,%rax,1)
 1500b70:	00 00 00 
 1500b73:	66 2e 0f 1f 84 00 00 	nopw   %cs:0x0(%rax,%rax,1)
 1500b7a:	00 00 00 
 1500b7d:	66 2e 0f 1f 84 00 00 	nopw   %cs:0x0(%rax,%rax,1)
 1500b84:	00 00 00 
 1500b87:	66 2e 0f 1f 84 00 00 	nopw   %cs:0x0(%rax,%rax,1)
 1500b8e:	00 00 00 
 1500b91:	66 2e 0f 1f 84 00 00 	nopw   %cs:0x0(%rax,%rax,1)
 1500b98:	00 00 00 
 1500b9b:	66 2e 0f 1f 84 00 00 	nopw   %cs:0x0(%rax,%rax,1)
 1500ba2:	00 00 00 
 1500ba5:	66 2e 0f 1f 84 00 00 	nopw   %cs:0x0(%rax,%rax,1)
 1500bac:	00 00 00 
 1500baf:	66 2e 0f 1f 84 00 00 	nopw   %cs:0x0(%rax,%rax,1)
 1500bb6:	00 00 00 
 1500bb9:	66 2e 0f 1f 84 00 00 	nopw   %cs:0x0(%rax,%rax,1)
 1500bc0:	00 00 00 
 1500bc3:	66 2e 0f 1f 84 00 00 	nopw   %cs:0x0(%rax,%rax,1)
 1500bca:	00 00 00 
 1500bcd:	66 2e 0f 1f 84 00 00 	nopw   %cs:0x0(%rax,%rax,1)
 1500bd4:	00 00 00 
 1500bd7:	66 2e 0f 1f 84 00 00 	nopw   %cs:0x0(%rax,%rax,1)
 1500bde:	00 00 00 
 1500be1:	66 2e 0f 1f 84 00 00 	nopw   %cs:0x0(%rax,%rax,1)
 1500be8:	00 00 00 
 1500beb:	66 2e 0f 1f 84 00 00 	nopw   %cs:0x0(%rax,%rax,1)
 1500bf2:	00 00 00 
 1500bf5:	66 2e 0f 1f 84 00 00 	nopw   %cs:0x0(%rax,%rax,1)
 1500bfc:	00 00 00 
 1500bff:	66 2e 0f 1f 84 00 00 	nopw   %cs:0x0(%rax,%rax,1)
 1500c06:	00 00 00 
 1500c09:	66 2e 0f 1f 84 00 00 	nopw   %cs:0x0(%rax,%rax,1)
 1500c10:	00 00 00 
 1500c13:	66 2e 0f 1f 84 00 00 	nopw   %cs:0x0(%rax,%rax,1)
 1500c1a:	00 00 00 
 1500c1d:	66 2e 0f 1f 84 00 00 	nopw   %cs:0x0(%rax,%rax,1)
 1500c24:	00 00 00 
 1500c27:	66 2e 0f 1f 84 00 00 	nopw   %cs:0x0(%rax,%rax,1)
 1500c2e:	00 00 00 
 1500c31:	66 2e 0f 1f 84 00 00 	nopw   %cs:0x0(%rax,%rax,1)
 1500c38:	00 00 00 
 1500c3b:	66 2e 0f 1f 84 00 00 	nopw   %cs:0x0(%rax,%rax,1)
 1500c42:	00 00 00 
 1500c45:	66 2e 0f 1f 84 00 00 	nopw   %cs:0x0(%rax,%rax,1)
 1500c4c:	00 00 00 
 1500c4f:	66 2e 0f 1f 84 00 00 	nopw   %cs:0x0(%rax,%rax,1)
 1500c56:	00 00 00 
 1500c59:	66 2e 0f 1f 84 00 00 	nopw   %cs:0x0(%rax,%rax,1)
 1500c60:	00 00 00 
 1500c63:	66 2e 0f 1f 84 00 00 	nopw   %cs:0x0(%rax,%rax,1)
 1500c6a:	00 00 00 
 1500c6d:	66 2e 0f 1f 84 00 00 	nopw   %cs:0x0(%rax,%rax,1)
 1500c74:	00 00 00 
 1500c77:	66 2e 0f 1f 84 00 00 	nopw   %cs:0x0(%rax,%rax,1)
 1500c7e:	00 00 00 
 1500c81:	66 2e 0f 1f 84 00 00 	nopw   %cs:0x0(%rax,%rax,1)
 1500c88:	00 00 00 
 1500c8b:	66 2e 0f 1f 84 00 00 	nopw   %cs:0x0(%rax,%rax,1)
 1500c92:	00 00 00 
 1500c95:	66 2e 0f 1f 84 00 00 	nopw   %cs:0x0(%rax,%rax,1)
 1500c9c:	00 00 00 
 1500c9f:	66 2e 0f 1f 84 00 00 	nopw   %cs:0x0(%rax,%rax,1)
 1500ca6:	00 00 00 
 1500ca9:	66 2e 0f 1f 84 00 00 	nopw   %cs:0x0(%rax,%rax,1)
 1500cb0:	00 00 00 
 1500cb3:	66 2e 0f 1f 84 00 00 	nopw   %cs:0x0(%rax,%rax,1)
 1500cba:	00 00 00 
 1500cbd:	66 2e 0f 1f 84 00 00 	nopw   %cs:0x0(%rax,%rax,1)
 1500cc4:	00 00 00 
 1500cc7:	66 2e 0f 1f 84 00 00 	nopw   %cs:0x0(%rax,%rax,1)
 1500cce:	00 00 00 
 1500cd1:	66 2e 0f 1f 84 00 00 	nopw   %cs:0x0(%rax,%rax,1)
 1500cd8:	00 00 00 
 1500cdb:	66 2e 0f 1f 84 00 00 	nopw   %cs:0x0(%rax,%rax,1)
 1500ce2:	00 00 00 
 1500ce5:	66 2e 0f 1f 84 00 00 	nopw   %cs:0x0(%rax,%rax,1)
 1500cec:	00 00 00 
 1500cef:	66 2e 0f 1f 84 00 00 	nopw   %cs:0x0(%rax,%rax,1)
 1500cf6:	00 00 00 
 1500cf9:	66 2e 0f 1f 84 00 00 	nopw   %cs:0x0(%rax,%rax,1)
 1500d00:	00 00 00 
 1500d03:	66 2e 0f 1f 84 00 00 	nopw   %cs:0x0(%rax,%rax,1)
 1500d0a:	00 00 00 
 1500d0d:	66 2e 0f 1f 84 00 00 	nopw   %cs:0x0(%rax,%rax,1)
 1500d14:	00 00 00 
 1500d17:	66 2e 0f 1f 84 00 00 	nopw   %cs:0x0(%rax,%rax,1)
 1500d1e:	00 00 00 
 1500d21:	66 2e 0f 1f 84 00 00 	nopw   %cs:0x0(%rax,%rax,1)
 1500d28:	00 00 00 
 1500d2b:	66 2e 0f 1f 84 00 00 	nopw   %cs:0x0(%rax,%rax,1)
 1500d32:	00 00 00 
 1500d35:	66 2e 0f 1f 84 00 00 	nopw   %cs:0x0(%rax,%rax,1)
 1500d3c:	00 00 00 
 1500d3f:	66 2e 0f 1f 84 00 00 	nopw   %cs:0x0(%rax,%rax,1)
 1500d46:	00 00 00 
 1500d49:	66 2e 0f 1f 84 00 00 	nopw   %cs:0x0(%rax,%rax,1)
 1500d50:	00 00 00 
 1500d53:	66 2e 0f 1f 84 00 00 	nopw   %cs:0x0(%rax,%rax,1)
 1500d5a:	00 00 00 
 1500d5d:	66 2e 0f 1f 84 00 00 	nopw   %cs:0x0(%rax,%rax,1)
 1500d64:	00 00 00 
 1500d67:	66 2e 0f 1f 84 00 00 	nopw   %cs:0x0(%rax,%rax,1)
 1500d6e:	00 00 00 
 1500d71:	66 2e 0f 1f 84 00 00 	nopw   %cs:0x0(%rax,%rax,1)
 1500d78:	00 00 00 
 1500d7b:	66 2e 0f 1f 84 00 00 	nopw   %cs:0x0(%rax,%rax,1)
 1500d82:	00 00 00 
 1500d85:	66 2e 0f 1f 84 00 00 	nopw   %cs:0x0(%rax,%rax,1)
 1500d8c:	00 00 00 
 1500d8f:	66 2e 0f 1f 84 00 00 	nopw   %cs:0x0(%rax,%rax,1)
 1500d96:	00 00 00 
 1500d99:	66 2e 0f 1f 84 00 00 	nopw   %cs:0x0(%rax,%rax,1)
 1500da0:	00 00 00 
 1500da3:	66 2e 0f 1f 84 00 00 	nopw   %cs:0x0(%rax,%rax,1)
 1500daa:	00 00 00 
 1500dad:	66 2e 0f 1f 84 00 00 	nopw   %cs:0x0(%rax,%rax,1)
 1500db4:	00 00 00 
 1500db7:	66 2e 0f 1f 84 00 00 	nopw   %cs:0x0(%rax,%rax,1)
 1500dbe:	00 00 00 
 1500dc1:	66 2e 0f 1f 84 00 00 	nopw   %cs:0x0(%rax,%rax,1)
 1500dc8:	00 00 00 
 1500dcb:	66 2e 0f 1f 84 00 00 	nopw   %cs:0x0(%rax,%rax,1)
 1500dd2:	00 00 00 
 1500dd5:	66 2e 0f 1f 84 00 00 	nopw   %cs:0x0(%rax,%rax,1)
 1500ddc:	00 00 00 
 1500ddf:	66 2e 0f 1f 84 00 00 	nopw   %cs:0x0(%rax,%rax,1)
 1500de6:	00 00 00 
 1500de9:	66 2e 0f 1f 84 00 00 	nopw   %cs:0x0(%rax,%rax,1)
 1500df0:	00 00 00 
 1500df3:	66 2e 0f 1f 84 00 00 	nopw   %cs:0x0(%rax,%rax,1)
 1500dfa:	00 00 00 
 1500dfd:	66 2e 0f 1f 84 00 00 	nopw   %cs:0x0(%rax,%rax,1)
 1500e04:	00 00 00 
 1500e07:	66 2e 0f 1f 84 00 00 	nopw   %cs:0x0(%rax,%rax,1)
 1500e0e:	00 00 00 
 1500e11:	66 2e 0f 1f 84 00 00 	nopw   %cs:0x0(%rax,%rax,1)
 1500e18:	00 00 00 
 1500e1b:	66 2e 0f 1f 84 00 00 	nopw   %cs:0x0(%rax,%rax,1)
 1500e22:	00 00 00 
 1500e25:	66 2e 0f 1f 84 00 00 	nopw   %cs:0x0(%rax,%rax,1)
 1500e2c:	00 00 00 
 1500e2f:	66 2e 0f 1f 84 00 00 	nopw   %cs:0x0(%rax,%rax,1)
 1500e36:	00 00 00 
 1500e39:	66 2e 0f 1f 84 00 00 	nopw   %cs:0x0(%rax,%rax,1)
 1500e40:	00 00 00 
 1500e43:	66 2e 0f 1f 84 00 00 	nopw   %cs:0x0(%rax,%rax,1)
 1500e4a:	00 00 00 
 1500e4d:	66 2e 0f 1f 84 00 00 	nopw   %cs:0x0(%rax,%rax,1)
 1500e54:	00 00 00 
 1500e57:	66 2e 0f 1f 84 00 00 	nopw   %cs:0x0(%rax,%rax,1)
 1500e5e:	00 00 00 
 1500e61:	66 2e 0f 1f 84 00 00 	nopw   %cs:0x0(%rax,%rax,1)
 1500e68:	00 00 00 
 1500e6b:	66 2e 0f 1f 84 00 00 	nopw   %cs:0x0(%rax,%rax,1)
 1500e72:	00 00 00 
 1500e75:	66 2e 0f 1f 84 00 00 	nopw   %cs:0x0(%rax,%rax,1)
 1500e7c:	00 00 00 
 1500e7f:	66 2e 0f 1f 84 00 00 	nopw   %cs:0x0(%rax,%rax,1)
 1500e86:	00 00 00 
 1500e89:	66 2e 0f 1f 84 00 00 	nopw   %cs:0x0(%rax,%rax,1)
 1500e90:	00 00 00 
 1500e93:	66 2e 0f 1f 84 00 00 	nopw   %cs:0x0(%rax,%rax,1)
 1500e9a:	00 00 00 
 1500e9d:	66 2e 0f 1f 84 00 00 	nopw   %cs:0x0(%rax,%rax,1)
 1500ea4:	00 00 00 
 1500ea7:	66 2e 0f 1f 84 00 00 	nopw   %cs:0x0(%rax,%rax,1)
 1500eae:	00 00 00 
 1500eb1:	66 2e 0f 1f 84 00 00 	nopw   %cs:0x0(%rax,%rax,1)
 1500eb8:	00 00 00 
 1500ebb:	66 2e 0f 1f 84 00 00 	nopw   %cs:0x0(%rax,%rax,1)
 1500ec2:	00 00 00 
 1500ec5:	66 2e 0f 1f 84 00 00 	nopw   %cs:0x0(%rax,%rax,1)
 1500ecc:	00 00 00 
 1500ecf:	66 2e 0f 1f 84 00 00 	nopw   %cs:0x0(%rax,%rax,1)
 1500ed6:	00 00 00 
 1500ed9:	66 2e 0f 1f 84 00 00 	nopw   %cs:0x0(%rax,%rax,1)
 1500ee0:	00 00 00 
 1500ee3:	66 2e 0f 1f 84 00 00 	nopw   %cs:0x0(%rax,%rax,1)
 1500eea:	00 00 00 
 1500eed:	66 2e 0f 1f 84 00 00 	nopw   %cs:0x0(%rax,%rax,1)
 1500ef4:	00 00 00 
 1500ef7:	66 2e 0f 1f 84 00 00 	nopw   %cs:0x0(%rax,%rax,1)
 1500efe:	00 00 00 
 1500f01:	66 2e 0f 1f 84 00 00 	nopw   %cs:0x0(%rax,%rax,1)
 1500f08:	00 00 00 
 1500f0b:	66 2e 0f 1f 84 00 00 	nopw   %cs:0x0(%rax,%rax,1)
 1500f12:	00 00 00 
 1500f15:	66 2e 0f 1f 84 00 00 	nopw   %cs:0x0(%rax,%rax,1)
 1500f1c:	00 00 00 
 1500f1f:	66 2e 0f 1f 84 00 00 	nopw   %cs:0x0(%rax,%rax,1)
 1500f26:	00 00 00 
 1500f29:	66 2e 0f 1f 84 00 00 	nopw   %cs:0x0(%rax,%rax,1)
 1500f30:	00 00 00 
 1500f33:	66 2e 0f 1f 84 00 00 	nopw   %cs:0x0(%rax,%rax,1)
 1500f3a:	00 00 00 
 1500f3d:	66 2e 0f 1f 84 00 00 	nopw   %cs:0x0(%rax,%rax,1)
 1500f44:	00 00 00 
 1500f47:	66 2e 0f 1f 84 00 00 	nopw   %cs:0x0(%rax,%rax,1)
 1500f4e:	00 00 00 
 1500f51:	66 2e 0f 1f 84 00 00 	nopw   %cs:0x0(%rax,%rax,1)
 1500f58:	00 00 00 
 1500f5b:	66 2e 0f 1f 84 00 00 	nopw   %cs:0x0(%rax,%rax,1)
 1500f62:	00 00 00 
 1500f65:	66 2e 0f 1f 84 00 00 	nopw   %cs:0x0(%rax,%rax,1)
 1500f6c:	00 00 00 
 1500f6f:	66 2e 0f 1f 84 00 00 	nopw   %cs:0x0(%rax,%rax,1)
 1500f76:	00 00 00 
 1500f79:	66 2e 0f 1f 84 00 00 	nopw   %cs:0x0(%rax,%rax,1)
 1500f80:	00 00 00 
 1500f83:	66 2e 0f 1f 84 00 00 	nopw   %cs:0x0(%rax,%rax,1)
 1500f8a:	00 00 00 
 1500f8d:	66 2e 0f 1f 84 00 00 	nopw   %cs:0x0(%rax,%rax,1)
 1500f94:	00 00 00 
 1500f97:	66 2e 0f 1f 84 00 00 	nopw   %cs:0x0(%rax,%rax,1)
 1500f9e:	00 00 00 
 1500fa1:	66 2e 0f 1f 84 00 00 	nopw   %cs:0x0(%rax,%rax,1)
 1500fa8:	00 00 00 
 1500fab:	66 2e 0f 1f 84 00 00 	nopw   %cs:0x0(%rax,%rax,1)
 1500fb2:	00 00 00 
 1500fb5:	66 2e 0f 1f 84 00 00 	nopw   %cs:0x0(%rax,%rax,1)
 1500fbc:	00 00 00 
 1500fbf:	66 2e 0f 1f 84 00 00 	nopw   %cs:0x0(%rax,%rax,1)
 1500fc6:	00 00 00 
 1500fc9:	66 2e 0f 1f 84 00 00 	nopw   %cs:0x0(%rax,%rax,1)
 1500fd0:	00 00 00 
 1500fd3:	66 2e 0f 1f 84 00 00 	nopw   %cs:0x0(%rax,%rax,1)
 1500fda:	00 00 00 
 1500fdd:	66 2e 0f 1f 84 00 00 	nopw   %cs:0x0(%rax,%rax,1)
 1500fe4:	00 00 00 
 1500fe7:	66 2e 0f 1f 84 00 00 	nopw   %cs:0x0(%rax,%rax,1)
 1500fee:	00 00 00 
 1500ff1:	66 2e 0f 1f 84 00 00 	nopw   %cs:0x0(%rax,%rax,1)
 1500ff8:	00 00 00 
 1500ffb:	0f 1f 44 00 00       	nopl   0x0(%rax,%rax,1)

0000000001501000 <pml4phys>:
	...

0000000001502000 <pdpt1>:
	...

0000000001503000 <pdpt2>:
	...

0000000001504000 <pde1>:
	...

0000000001505000 <pde2>:
	...

0000000001506000 <pdefreestart>:
	...

Disassembly of section .text:

0000008041600000 <__text_start>:

.globl entry
entry:
  # LAB 4 code
  # маскирование прерываний
  cli
  8041600000:	fa                   	cli    
  # LAB 4 code end

  # Save LoadParams in uefi_lp.
  movq %rcx, uefi_lp(%rip)
  8041600001:	48 89 0d f8 ff 01 00 	mov    %rcx,0x1fff8(%rip)        # 8041620000 <bootstacktop>

  # Set the stack pointer.
  leaq bootstacktop(%rip),%rsp
  8041600008:	48 8d 25 f1 ff 01 00 	lea    0x1fff1(%rip),%rsp        # 8041620000 <bootstacktop>

  # Clear the frame pointer register (RBP)
  # so that once we get into debugging C code,
  # stack backtraces will be terminated properly.
  xorq %rbp, %rbp      # nuke frame pointer
  804160000f:	48 31 ed             	xor    %rbp,%rbp

  # now to C code
  call i386_init
  8041600012:	e8 19 04 00 00       	callq  8041600430 <i386_init>

0000008041600017 <spin>:

  # Should never get here, but in case we do, just spin.
spin:  jmp  spin
  8041600017:	eb fe                	jmp    8041600017 <spin>

0000008041600019 <timers_init>:
#include <kern/picirq.h>
#include <kern/kclock.h>
#include <kern/kdebug.h>

void
timers_init(void) {
  8041600019:	55                   	push   %rbp
  804160001a:	48 89 e5             	mov    %rsp,%rbp
  804160001d:	41 54                	push   %r12
  804160001f:	53                   	push   %rbx
  timertab[0] = timer_rtc;
  8041600020:	48 bb 80 5a 88 41 80 	movabs $0x8041885a80,%rbx
  8041600027:	00 00 00 
  804160002a:	48 b8 c0 07 62 41 80 	movabs $0x80416207c0,%rax
  8041600031:	00 00 00 
  8041600034:	f3 0f 6f 00          	movdqu (%rax),%xmm0
  8041600038:	0f 11 03             	movups %xmm0,(%rbx)
  804160003b:	f3 0f 6f 48 10       	movdqu 0x10(%rax),%xmm1
  8041600040:	0f 11 4b 10          	movups %xmm1,0x10(%rbx)
  8041600044:	48 8b 40 20          	mov    0x20(%rax),%rax
  8041600048:	48 89 43 20          	mov    %rax,0x20(%rbx)
  timertab[1] = timer_pit;
  804160004c:	48 b8 e0 08 62 41 80 	movabs $0x80416208e0,%rax
  8041600053:	00 00 00 
  8041600056:	f3 0f 6f 10          	movdqu (%rax),%xmm2
  804160005a:	0f 11 53 28          	movups %xmm2,0x28(%rbx)
  804160005e:	f3 0f 6f 58 10       	movdqu 0x10(%rax),%xmm3
  8041600063:	0f 11 5b 38          	movups %xmm3,0x38(%rbx)
  8041600067:	48 8b 40 20          	mov    0x20(%rax),%rax
  804160006b:	48 89 43 48          	mov    %rax,0x48(%rbx)
  timertab[2] = timer_acpipm;
  804160006f:	48 b8 00 08 62 41 80 	movabs $0x8041620800,%rax
  8041600076:	00 00 00 
  8041600079:	f3 0f 6f 20          	movdqu (%rax),%xmm4
  804160007d:	0f 11 63 50          	movups %xmm4,0x50(%rbx)
  8041600081:	f3 0f 6f 68 10       	movdqu 0x10(%rax),%xmm5
  8041600086:	0f 11 6b 60          	movups %xmm5,0x60(%rbx)
  804160008a:	48 8b 40 20          	mov    0x20(%rax),%rax
  804160008e:	48 89 43 70          	mov    %rax,0x70(%rbx)
  timertab[3] = timer_hpet0;
  8041600092:	48 b8 80 08 62 41 80 	movabs $0x8041620880,%rax
  8041600099:	00 00 00 
  804160009c:	f3 0f 6f 30          	movdqu (%rax),%xmm6
  80416000a0:	0f 11 73 78          	movups %xmm6,0x78(%rbx)
  80416000a4:	f3 0f 6f 78 10       	movdqu 0x10(%rax),%xmm7
  80416000a9:	0f 11 bb 88 00 00 00 	movups %xmm7,0x88(%rbx)
  80416000b0:	48 8b 40 20          	mov    0x20(%rax),%rax
  80416000b4:	48 89 83 98 00 00 00 	mov    %rax,0x98(%rbx)
  timertab[4] = timer_hpet1;
  80416000bb:	48 b8 40 08 62 41 80 	movabs $0x8041620840,%rax
  80416000c2:	00 00 00 
  80416000c5:	f3 0f 6f 00          	movdqu (%rax),%xmm0
  80416000c9:	0f 11 83 a0 00 00 00 	movups %xmm0,0xa0(%rbx)
  80416000d0:	f3 0f 6f 48 10       	movdqu 0x10(%rax),%xmm1
  80416000d5:	0f 11 8b b0 00 00 00 	movups %xmm1,0xb0(%rbx)
  80416000dc:	48 8b 40 20          	mov    0x20(%rax),%rax
  80416000e0:	48 89 83 c0 00 00 00 	mov    %rax,0xc0(%rbx)

  for (int i = 0; i < MAX_TIMERS; i++) {
  80416000e7:	4c 8d a3 c8 00 00 00 	lea    0xc8(%rbx),%r12
  80416000ee:	eb 09                	jmp    80416000f9 <timers_init+0xe0>
  80416000f0:	48 83 c3 28          	add    $0x28,%rbx
  80416000f4:	4c 39 e3             	cmp    %r12,%rbx
  80416000f7:	74 0d                	je     8041600106 <timers_init+0xed>
    if (timertab[i].timer_init != NULL) {
  80416000f9:	48 8b 43 08          	mov    0x8(%rbx),%rax
  80416000fd:	48 85 c0             	test   %rax,%rax
  8041600100:	74 ee                	je     80416000f0 <timers_init+0xd7>
      timertab[i].timer_init();
  8041600102:	ff d0                	callq  *%rax
  8041600104:	eb ea                	jmp    80416000f0 <timers_init+0xd7>
    }
  }
}
  8041600106:	5b                   	pop    %rbx
  8041600107:	41 5c                	pop    %r12
  8041600109:	5d                   	pop    %rbp
  804160010a:	c3                   	retq   

000000804160010b <alloc_pde_early_boot>:
  //Assume pde1, pde2 is already used.
  extern uintptr_t pdefreestart, pdefreeend;
  pde_t *ret;
  static uintptr_t pdefree = (uintptr_t)&pdefreestart;

  if (pdefree >= (uintptr_t)&pdefreeend)
  804160010b:	48 b8 08 00 62 41 80 	movabs $0x8041620008,%rax
  8041600112:	00 00 00 
  8041600115:	48 8b 10             	mov    (%rax),%rdx
  8041600118:	48 b8 00 c0 50 01 00 	movabs $0x150c000,%rax
  804160011f:	00 00 00 
  8041600122:	48 39 c2             	cmp    %rax,%rdx
  8041600125:	73 1b                	jae    8041600142 <alloc_pde_early_boot+0x37>
    return NULL;

  ret = (pde_t *)pdefree;
  8041600127:	48 89 d1             	mov    %rdx,%rcx
  pdefree += PGSIZE;
  804160012a:	48 81 c2 00 10 00 00 	add    $0x1000,%rdx
  8041600131:	48 89 d0             	mov    %rdx,%rax
  8041600134:	48 a3 08 00 62 41 80 	movabs %rax,0x8041620008
  804160013b:	00 00 00 
  return ret;
}
  804160013e:	48 89 c8             	mov    %rcx,%rax
  8041600141:	c3                   	retq   
    return NULL;
  8041600142:	b9 00 00 00 00       	mov    $0x0,%ecx
  8041600147:	eb f5                	jmp    804160013e <alloc_pde_early_boot+0x33>

0000008041600149 <map_addr_early_boot>:

void
map_addr_early_boot(uintptr_t addr, uintptr_t addr_phys, size_t sz) {
  8041600149:	55                   	push   %rbp
  804160014a:	48 89 e5             	mov    %rsp,%rbp
  804160014d:	41 57                	push   %r15
  804160014f:	41 56                	push   %r14
  8041600151:	41 55                	push   %r13
  8041600153:	41 54                	push   %r12
  8041600155:	53                   	push   %rbx
  8041600156:	48 83 ec 18          	sub    $0x18,%rsp
  pml4e_t *pml4 = &pml4phys;
  pdpe_t *pdpt;
  pde_t *pde;

  uintptr_t addr_curr, addr_curr_phys, addr_end;
  addr_curr      = ROUNDDOWN(addr, PTSIZE);
  804160015a:	49 89 ff             	mov    %rdi,%r15
  804160015d:	49 81 e7 00 00 e0 ff 	and    $0xffffffffffe00000,%r15
  addr_curr_phys = ROUNDDOWN(addr_phys, PTSIZE);
  8041600164:	48 81 e6 00 00 e0 ff 	and    $0xffffffffffe00000,%rsi
  804160016b:	48 89 75 c8          	mov    %rsi,-0x38(%rbp)
  addr_end       = ROUNDUP(addr + sz, PTSIZE);
  804160016f:	4c 8d b4 17 ff ff 1f 	lea    0x1fffff(%rdi,%rdx,1),%r14
  8041600176:	00 
  8041600177:	49 81 e6 00 00 e0 ff 	and    $0xffffffffffe00000,%r14

  pdpt = (pdpe_t *)PTE_ADDR(pml4[PML4(addr_curr)]);
  804160017e:	48 c1 ef 24          	shr    $0x24,%rdi
  8041600182:	81 e7 f8 0f 00 00    	and    $0xff8,%edi
  8041600188:	48 b8 00 10 50 01 00 	movabs $0x1501000,%rax
  804160018f:	00 00 00 
  8041600192:	48 8b 04 38          	mov    (%rax,%rdi,1),%rax
  8041600196:	48 25 00 f0 ff ff    	and    $0xfffffffffffff000,%rax
  804160019c:	48 89 45 c0          	mov    %rax,-0x40(%rbp)
  for (; addr_curr < addr_end; addr_curr += PTSIZE, addr_curr_phys += PTSIZE) {
  80416001a0:	4d 39 fe             	cmp    %r15,%r14
  80416001a3:	76 67                	jbe    804160020c <map_addr_early_boot+0xc3>
  addr_curr      = ROUNDDOWN(addr, PTSIZE);
  80416001a5:	4d 89 fc             	mov    %r15,%r12
  80416001a8:	eb 3a                	jmp    80416001e4 <map_addr_early_boot+0x9b>
    pde = (pde_t *)PTE_ADDR(pdpt[PDPE(addr_curr)]);
    if (!pde) {
      pde                   = alloc_pde_early_boot();
  80416001aa:	48 b8 0b 01 60 41 80 	movabs $0x804160010b,%rax
  80416001b1:	00 00 00 
  80416001b4:	ff d0                	callq  *%rax
      pdpt[PDPE(addr_curr)] = ((uintptr_t)pde) | PTE_P | PTE_W;
  80416001b6:	48 89 c2             	mov    %rax,%rdx
  80416001b9:	48 83 ca 03          	or     $0x3,%rdx
  80416001bd:	48 89 13             	mov    %rdx,(%rbx)
    }
    pde[PDX(addr_curr)] = addr_curr_phys | PTE_P | PTE_W | PTE_MBZ;
  80416001c0:	4c 89 e2             	mov    %r12,%rdx
  80416001c3:	48 c1 ea 15          	shr    $0x15,%rdx
  80416001c7:	81 e2 ff 01 00 00    	and    $0x1ff,%edx
  80416001cd:	49 81 cd 83 01 00 00 	or     $0x183,%r13
  80416001d4:	4c 89 2c d0          	mov    %r13,(%rax,%rdx,8)
  for (; addr_curr < addr_end; addr_curr += PTSIZE, addr_curr_phys += PTSIZE) {
  80416001d8:	49 81 c4 00 00 20 00 	add    $0x200000,%r12
  80416001df:	4d 39 e6             	cmp    %r12,%r14
  80416001e2:	76 28                	jbe    804160020c <map_addr_early_boot+0xc3>
  80416001e4:	4c 8b 6d c8          	mov    -0x38(%rbp),%r13
  80416001e8:	4d 29 fd             	sub    %r15,%r13
  80416001eb:	4d 01 e5             	add    %r12,%r13
    pde = (pde_t *)PTE_ADDR(pdpt[PDPE(addr_curr)]);
  80416001ee:	4c 89 e3             	mov    %r12,%rbx
  80416001f1:	48 c1 eb 1b          	shr    $0x1b,%rbx
  80416001f5:	81 e3 f8 0f 00 00    	and    $0xff8,%ebx
  80416001fb:	48 03 5d c0          	add    -0x40(%rbp),%rbx
    if (!pde) {
  80416001ff:	48 8b 03             	mov    (%rbx),%rax
  8041600202:	48 25 00 f0 ff ff    	and    $0xfffffffffffff000,%rax
  8041600208:	75 b6                	jne    80416001c0 <map_addr_early_boot+0x77>
  804160020a:	eb 9e                	jmp    80416001aa <map_addr_early_boot+0x61>
  }
}
  804160020c:	48 83 c4 18          	add    $0x18,%rsp
  8041600210:	5b                   	pop    %rbx
  8041600211:	41 5c                	pop    %r12
  8041600213:	41 5d                	pop    %r13
  8041600215:	41 5e                	pop    %r14
  8041600217:	41 5f                	pop    %r15
  8041600219:	5d                   	pop    %rbp
  804160021a:	c3                   	retq   

000000804160021b <early_boot_pml4_init>:
// Additionally maps pml4 memory so that we dont get memory errors on accessing
// uefi_lp, MemMap, KASAN functions.
void
early_boot_pml4_init(void) {
  804160021b:	55                   	push   %rbp
  804160021c:	48 89 e5             	mov    %rsp,%rbp
  804160021f:	41 54                	push   %r12
  8041600221:	53                   	push   %rbx

  map_addr_early_boot((uintptr_t)uefi_lp, (uintptr_t)uefi_lp, sizeof(LOADER_PARAMS));
  8041600222:	49 bc 00 00 62 41 80 	movabs $0x8041620000,%r12
  8041600229:	00 00 00 
  804160022c:	49 8b 3c 24          	mov    (%r12),%rdi
  8041600230:	ba c8 00 00 00       	mov    $0xc8,%edx
  8041600235:	48 89 fe             	mov    %rdi,%rsi
  8041600238:	48 bb 49 01 60 41 80 	movabs $0x8041600149,%rbx
  804160023f:	00 00 00 
  8041600242:	ff d3                	callq  *%rbx
  map_addr_early_boot((uintptr_t)uefi_lp->MemoryMap, (uintptr_t)uefi_lp->MemoryMap, uefi_lp->MemoryMapSize);
  8041600244:	49 8b 04 24          	mov    (%r12),%rax
  8041600248:	48 8b 78 28          	mov    0x28(%rax),%rdi
  804160024c:	48 8b 50 38          	mov    0x38(%rax),%rdx
  8041600250:	48 89 fe             	mov    %rdi,%rsi
  8041600253:	ff d3                	callq  *%rbx
#endif

#if LAB <= 6
  map_addr_early_boot(FBUFFBASE, uefi_lp->FrameBufferBase, uefi_lp->FrameBufferSize);
#endif
}
  8041600255:	5b                   	pop    %rbx
  8041600256:	41 5c                	pop    %r12
  8041600258:	5d                   	pop    %rbp
  8041600259:	c3                   	retq   

000000804160025a <_panic>:
/*
 * Panic is called on unresolvable fatal errors.
 * It prints "panic: mesg", and then enters the kernel monitor.
 */
void
_panic(const char *file, int line, const char *fmt, ...) {
  804160025a:	55                   	push   %rbp
  804160025b:	48 89 e5             	mov    %rsp,%rbp
  804160025e:	41 54                	push   %r12
  8041600260:	53                   	push   %rbx
  8041600261:	48 81 ec d0 00 00 00 	sub    $0xd0,%rsp
  8041600268:	49 89 d4             	mov    %rdx,%r12
  804160026b:	48 89 8d 58 ff ff ff 	mov    %rcx,-0xa8(%rbp)
  8041600272:	4c 89 85 60 ff ff ff 	mov    %r8,-0xa0(%rbp)
  8041600279:	4c 89 8d 68 ff ff ff 	mov    %r9,-0x98(%rbp)
  8041600280:	84 c0                	test   %al,%al
  8041600282:	74 23                	je     80416002a7 <_panic+0x4d>
  8041600284:	0f 29 85 70 ff ff ff 	movaps %xmm0,-0x90(%rbp)
  804160028b:	0f 29 4d 80          	movaps %xmm1,-0x80(%rbp)
  804160028f:	0f 29 55 90          	movaps %xmm2,-0x70(%rbp)
  8041600293:	0f 29 5d a0          	movaps %xmm3,-0x60(%rbp)
  8041600297:	0f 29 65 b0          	movaps %xmm4,-0x50(%rbp)
  804160029b:	0f 29 6d c0          	movaps %xmm5,-0x40(%rbp)
  804160029f:	0f 29 75 d0          	movaps %xmm6,-0x30(%rbp)
  80416002a3:	0f 29 7d e0          	movaps %xmm7,-0x20(%rbp)
  va_list ap;

  if (panicstr)
  80416002a7:	48 b8 80 42 88 41 80 	movabs $0x8041884280,%rax
  80416002ae:	00 00 00 
  80416002b1:	48 83 38 00          	cmpq   $0x0,(%rax)
  80416002b5:	74 13                	je     80416002ca <_panic+0x70>
  va_end(ap);

dead:
  /* break into the kernel monitor */
  while (1)
    monitor(NULL);
  80416002b7:	48 bb 09 3f 60 41 80 	movabs $0x8041603f09,%rbx
  80416002be:	00 00 00 
  80416002c1:	bf 00 00 00 00       	mov    $0x0,%edi
  80416002c6:	ff d3                	callq  *%rbx
  while (1)
  80416002c8:	eb f7                	jmp    80416002c1 <_panic+0x67>
  panicstr = fmt;
  80416002ca:	4c 89 e0             	mov    %r12,%rax
  80416002cd:	48 a3 80 42 88 41 80 	movabs %rax,0x8041884280
  80416002d4:	00 00 00 
  __asm __volatile("cli; cld");
  80416002d7:	fa                   	cli    
  80416002d8:	fc                   	cld    
  va_start(ap, fmt);
  80416002d9:	c7 85 28 ff ff ff 18 	movl   $0x18,-0xd8(%rbp)
  80416002e0:	00 00 00 
  80416002e3:	c7 85 2c ff ff ff 30 	movl   $0x30,-0xd4(%rbp)
  80416002ea:	00 00 00 
  80416002ed:	48 8d 45 10          	lea    0x10(%rbp),%rax
  80416002f1:	48 89 85 30 ff ff ff 	mov    %rax,-0xd0(%rbp)
  80416002f8:	48 8d 85 40 ff ff ff 	lea    -0xc0(%rbp),%rax
  80416002ff:	48 89 85 38 ff ff ff 	mov    %rax,-0xc8(%rbp)
  cprintf("kernel panic at %s:%d: ", file, line);
  8041600306:	89 f2                	mov    %esi,%edx
  8041600308:	48 89 fe             	mov    %rdi,%rsi
  804160030b:	48 bf a0 cc 60 41 80 	movabs $0x804160cca0,%rdi
  8041600312:	00 00 00 
  8041600315:	b8 00 00 00 00       	mov    $0x0,%eax
  804160031a:	48 bb 0d 92 60 41 80 	movabs $0x804160920d,%rbx
  8041600321:	00 00 00 
  8041600324:	ff d3                	callq  *%rbx
  vcprintf(fmt, ap);
  8041600326:	48 8d b5 28 ff ff ff 	lea    -0xd8(%rbp),%rsi
  804160032d:	4c 89 e7             	mov    %r12,%rdi
  8041600330:	48 b8 d9 91 60 41 80 	movabs $0x80416091d9,%rax
  8041600337:	00 00 00 
  804160033a:	ff d0                	callq  *%rax
  cprintf("\n");
  804160033c:	48 bf 3f e2 60 41 80 	movabs $0x804160e23f,%rdi
  8041600343:	00 00 00 
  8041600346:	b8 00 00 00 00       	mov    $0x0,%eax
  804160034b:	ff d3                	callq  *%rbx
  va_end(ap);
  804160034d:	e9 65 ff ff ff       	jmpq   80416002b7 <_panic+0x5d>

0000008041600352 <timers_schedule>:
timers_schedule(const char *name) {
  8041600352:	55                   	push   %rbp
  8041600353:	48 89 e5             	mov    %rsp,%rbp
  8041600356:	41 56                	push   %r14
  8041600358:	41 55                	push   %r13
  804160035a:	41 54                	push   %r12
  804160035c:	53                   	push   %rbx
  804160035d:	49 89 fd             	mov    %rdi,%r13
  for (int i = 0; i < MAX_TIMERS; i++) {
  8041600360:	49 bc 80 5a 88 41 80 	movabs $0x8041885a80,%r12
  8041600367:	00 00 00 
  804160036a:	bb 00 00 00 00       	mov    $0x0,%ebx
    if (timertab[i].timer_name != NULL && strcmp(timertab[i].timer_name, name) == 0) {
  804160036f:	49 be fa c3 60 41 80 	movabs $0x804160c3fa,%r14
  8041600376:	00 00 00 
  8041600379:	eb 3a                	jmp    80416003b5 <timers_schedule+0x63>
        panic("Timer %s does not support interrupts\n", name);
  804160037b:	4c 89 e9             	mov    %r13,%rcx
  804160037e:	48 ba 40 cd 60 41 80 	movabs $0x804160cd40,%rdx
  8041600385:	00 00 00 
  8041600388:	be 2d 00 00 00       	mov    $0x2d,%esi
  804160038d:	48 bf b8 cc 60 41 80 	movabs $0x804160ccb8,%rdi
  8041600394:	00 00 00 
  8041600397:	b8 00 00 00 00       	mov    $0x0,%eax
  804160039c:	49 b8 5a 02 60 41 80 	movabs $0x804160025a,%r8
  80416003a3:	00 00 00 
  80416003a6:	41 ff d0             	callq  *%r8
  for (int i = 0; i < MAX_TIMERS; i++) {
  80416003a9:	83 c3 01             	add    $0x1,%ebx
  80416003ac:	49 83 c4 28          	add    $0x28,%r12
  80416003b0:	83 fb 05             	cmp    $0x5,%ebx
  80416003b3:	74 4d                	je     8041600402 <timers_schedule+0xb0>
    if (timertab[i].timer_name != NULL && strcmp(timertab[i].timer_name, name) == 0) {
  80416003b5:	49 8b 3c 24          	mov    (%r12),%rdi
  80416003b9:	48 85 ff             	test   %rdi,%rdi
  80416003bc:	74 eb                	je     80416003a9 <timers_schedule+0x57>
  80416003be:	4c 89 ee             	mov    %r13,%rsi
  80416003c1:	41 ff d6             	callq  *%r14
  80416003c4:	85 c0                	test   %eax,%eax
  80416003c6:	75 e1                	jne    80416003a9 <timers_schedule+0x57>
      if (timertab[i].enable_interrupts != NULL) {
  80416003c8:	48 63 c3             	movslq %ebx,%rax
  80416003cb:	48 8d 14 80          	lea    (%rax,%rax,4),%rdx
  80416003cf:	48 b8 80 5a 88 41 80 	movabs $0x8041885a80,%rax
  80416003d6:	00 00 00 
  80416003d9:	48 8b 74 d0 18       	mov    0x18(%rax,%rdx,8),%rsi
  80416003de:	48 85 f6             	test   %rsi,%rsi
  80416003e1:	74 98                	je     804160037b <timers_schedule+0x29>
        timer_for_schedule = &timertab[i];
  80416003e3:	48 89 d1             	mov    %rdx,%rcx
  80416003e6:	48 8d 14 c8          	lea    (%rax,%rcx,8),%rdx
  80416003ea:	48 89 d0             	mov    %rdx,%rax
  80416003ed:	48 a3 60 5a 88 41 80 	movabs %rax,0x8041885a60
  80416003f4:	00 00 00 
        timertab[i].enable_interrupts();
  80416003f7:	ff d6                	callq  *%rsi
}
  80416003f9:	5b                   	pop    %rbx
  80416003fa:	41 5c                	pop    %r12
  80416003fc:	41 5d                	pop    %r13
  80416003fe:	41 5e                	pop    %r14
  8041600400:	5d                   	pop    %rbp
  8041600401:	c3                   	retq   
  panic("Timer %s does not exist\n", name);
  8041600402:	4c 89 e9             	mov    %r13,%rcx
  8041600405:	48 ba c4 cc 60 41 80 	movabs $0x804160ccc4,%rdx
  804160040c:	00 00 00 
  804160040f:	be 33 00 00 00       	mov    $0x33,%esi
  8041600414:	48 bf b8 cc 60 41 80 	movabs $0x804160ccb8,%rdi
  804160041b:	00 00 00 
  804160041e:	b8 00 00 00 00       	mov    $0x0,%eax
  8041600423:	49 b8 5a 02 60 41 80 	movabs $0x804160025a,%r8
  804160042a:	00 00 00 
  804160042d:	41 ff d0             	callq  *%r8

0000008041600430 <i386_init>:
i386_init(void) {
  8041600430:	55                   	push   %rbp
  8041600431:	48 89 e5             	mov    %rsp,%rbp
  8041600434:	41 54                	push   %r12
  8041600436:	53                   	push   %rbx
  early_boot_pml4_init();
  8041600437:	48 b8 1b 02 60 41 80 	movabs $0x804160021b,%rax
  804160043e:	00 00 00 
  8041600441:	ff d0                	callq  *%rax
  cons_init();
  8041600443:	48 b8 6e 0c 60 41 80 	movabs $0x8041600c6e,%rax
  804160044a:	00 00 00 
  804160044d:	ff d0                	callq  *%rax
  tsc_calibrate();
  804160044f:	48 b8 6c c7 60 41 80 	movabs $0x804160c76c,%rax
  8041600456:	00 00 00 
  8041600459:	ff d0                	callq  *%rax
  cprintf("6828 decimal is %o octal!\n", 6828);
  804160045b:	be ac 1a 00 00       	mov    $0x1aac,%esi
  8041600460:	48 bf dd cc 60 41 80 	movabs $0x804160ccdd,%rdi
  8041600467:	00 00 00 
  804160046a:	b8 00 00 00 00       	mov    $0x0,%eax
  804160046f:	48 bb 0d 92 60 41 80 	movabs $0x804160920d,%rbx
  8041600476:	00 00 00 
  8041600479:	ff d3                	callq  *%rbx
  cprintf("END: %p\n", end);
  804160047b:	48 be 00 60 88 41 80 	movabs $0x8041886000,%rsi
  8041600482:	00 00 00 
  8041600485:	48 bf f8 cc 60 41 80 	movabs $0x804160ccf8,%rdi
  804160048c:	00 00 00 
  804160048f:	b8 00 00 00 00       	mov    $0x0,%eax
  8041600494:	ff d3                	callq  *%rbx
  mem_init();
  8041600496:	48 b8 57 52 60 41 80 	movabs $0x8041605257,%rax
  804160049d:	00 00 00 
  80416004a0:	ff d0                	callq  *%rax
  while (ctor < &__ctors_end) {
  80416004a2:	48 ba 78 42 88 41 80 	movabs $0x8041884278,%rdx
  80416004a9:	00 00 00 
  80416004ac:	48 b8 78 42 88 41 80 	movabs $0x8041884278,%rax
  80416004b3:	00 00 00 
  80416004b6:	48 39 c2             	cmp    %rax,%rdx
  80416004b9:	73 23                	jae    80416004de <i386_init+0xae>
  80416004bb:	48 89 d3             	mov    %rdx,%rbx
  80416004be:	48 8d 40 ff          	lea    -0x1(%rax),%rax
  80416004c2:	48 29 d0             	sub    %rdx,%rax
  80416004c5:	48 c1 e8 03          	shr    $0x3,%rax
  80416004c9:	4c 8d 64 c2 08       	lea    0x8(%rdx,%rax,8),%r12
    (*ctor)();
  80416004ce:	b8 00 00 00 00       	mov    $0x0,%eax
  80416004d3:	ff 13                	callq  *(%rbx)
    ctor++;
  80416004d5:	48 83 c3 08          	add    $0x8,%rbx
  while (ctor < &__ctors_end) {
  80416004d9:	4c 39 e3             	cmp    %r12,%rbx
  80416004dc:	75 f0                	jne    80416004ce <i386_init+0x9e>
  timers_init();
  80416004de:	48 b8 19 00 60 41 80 	movabs $0x8041600019,%rax
  80416004e5:	00 00 00 
  80416004e8:	ff d0                	callq  *%rax
  fb_init();
  80416004ea:	48 b8 61 0b 60 41 80 	movabs $0x8041600b61,%rax
  80416004f1:	00 00 00 
  80416004f4:	ff d0                	callq  *%rax
  cprintf("Framebuffer initialised\n");
  80416004f6:	48 bf 01 cd 60 41 80 	movabs $0x804160cd01,%rdi
  80416004fd:	00 00 00 
  8041600500:	b8 00 00 00 00       	mov    $0x0,%eax
  8041600505:	48 ba 0d 92 60 41 80 	movabs $0x804160920d,%rdx
  804160050c:	00 00 00 
  804160050f:	ff d2                	callq  *%rdx
  env_init();
  8041600511:	48 b8 44 86 60 41 80 	movabs $0x8041608644,%rax
  8041600518:	00 00 00 
  804160051b:	ff d0                	callq  *%rax
  trap_init();
  804160051d:	48 b8 14 93 60 41 80 	movabs $0x8041609314,%rax
  8041600524:	00 00 00 
  8041600527:	ff d0                	callq  *%rax
  timers_schedule("hpet0");
  8041600529:	48 bf 1a cd 60 41 80 	movabs $0x804160cd1a,%rdi
  8041600530:	00 00 00 
  8041600533:	48 b8 52 03 60 41 80 	movabs $0x8041600352,%rax
  804160053a:	00 00 00 
  804160053d:	ff d0                	callq  *%rax
  clock_idt_init();
  804160053f:	48 b8 dd 96 60 41 80 	movabs $0x80416096dd,%rax
  8041600546:	00 00 00 
  8041600549:	ff d0                	callq  *%rax
  ENV_CREATE(TEST, ENV_TYPE_USER);
  804160054b:	be 02 00 00 00       	mov    $0x2,%esi
  8041600550:	48 bf 18 fb 7b 41 80 	movabs $0x80417bfb18,%rdi
  8041600557:	00 00 00 
  804160055a:	48 b8 3b 89 60 41 80 	movabs $0x804160893b,%rax
  8041600561:	00 00 00 
  8041600564:	ff d0                	callq  *%rax
  sched_yield();
  8041600566:	48 b8 4c ad 60 41 80 	movabs $0x804160ad4c,%rax
  804160056d:	00 00 00 
  8041600570:	ff d0                	callq  *%rax

0000008041600572 <_warn>:
}

/* like panic, but don't */
void
_warn(const char *file, int line, const char *fmt, ...) {
  8041600572:	55                   	push   %rbp
  8041600573:	48 89 e5             	mov    %rsp,%rbp
  8041600576:	41 54                	push   %r12
  8041600578:	53                   	push   %rbx
  8041600579:	48 81 ec d0 00 00 00 	sub    $0xd0,%rsp
  8041600580:	49 89 d4             	mov    %rdx,%r12
  8041600583:	48 89 8d 58 ff ff ff 	mov    %rcx,-0xa8(%rbp)
  804160058a:	4c 89 85 60 ff ff ff 	mov    %r8,-0xa0(%rbp)
  8041600591:	4c 89 8d 68 ff ff ff 	mov    %r9,-0x98(%rbp)
  8041600598:	84 c0                	test   %al,%al
  804160059a:	74 23                	je     80416005bf <_warn+0x4d>
  804160059c:	0f 29 85 70 ff ff ff 	movaps %xmm0,-0x90(%rbp)
  80416005a3:	0f 29 4d 80          	movaps %xmm1,-0x80(%rbp)
  80416005a7:	0f 29 55 90          	movaps %xmm2,-0x70(%rbp)
  80416005ab:	0f 29 5d a0          	movaps %xmm3,-0x60(%rbp)
  80416005af:	0f 29 65 b0          	movaps %xmm4,-0x50(%rbp)
  80416005b3:	0f 29 6d c0          	movaps %xmm5,-0x40(%rbp)
  80416005b7:	0f 29 75 d0          	movaps %xmm6,-0x30(%rbp)
  80416005bb:	0f 29 7d e0          	movaps %xmm7,-0x20(%rbp)
  va_list ap;

  va_start(ap, fmt);
  80416005bf:	c7 85 28 ff ff ff 18 	movl   $0x18,-0xd8(%rbp)
  80416005c6:	00 00 00 
  80416005c9:	c7 85 2c ff ff ff 30 	movl   $0x30,-0xd4(%rbp)
  80416005d0:	00 00 00 
  80416005d3:	48 8d 45 10          	lea    0x10(%rbp),%rax
  80416005d7:	48 89 85 30 ff ff ff 	mov    %rax,-0xd0(%rbp)
  80416005de:	48 8d 85 40 ff ff ff 	lea    -0xc0(%rbp),%rax
  80416005e5:	48 89 85 38 ff ff ff 	mov    %rax,-0xc8(%rbp)
  cprintf("kernel warning at %s:%d: ", file, line);
  80416005ec:	89 f2                	mov    %esi,%edx
  80416005ee:	48 89 fe             	mov    %rdi,%rsi
  80416005f1:	48 bf 20 cd 60 41 80 	movabs $0x804160cd20,%rdi
  80416005f8:	00 00 00 
  80416005fb:	b8 00 00 00 00       	mov    $0x0,%eax
  8041600600:	48 bb 0d 92 60 41 80 	movabs $0x804160920d,%rbx
  8041600607:	00 00 00 
  804160060a:	ff d3                	callq  *%rbx
  vcprintf(fmt, ap);
  804160060c:	48 8d b5 28 ff ff ff 	lea    -0xd8(%rbp),%rsi
  8041600613:	4c 89 e7             	mov    %r12,%rdi
  8041600616:	48 b8 d9 91 60 41 80 	movabs $0x80416091d9,%rax
  804160061d:	00 00 00 
  8041600620:	ff d0                	callq  *%rax
  cprintf("\n");
  8041600622:	48 bf 3f e2 60 41 80 	movabs $0x804160e23f,%rdi
  8041600629:	00 00 00 
  804160062c:	b8 00 00 00 00       	mov    $0x0,%eax
  8041600631:	ff d3                	callq  *%rbx
  va_end(ap);
}
  8041600633:	48 81 c4 d0 00 00 00 	add    $0xd0,%rsp
  804160063a:	5b                   	pop    %rbx
  804160063b:	41 5c                	pop    %r12
  804160063d:	5d                   	pop    %rbp
  804160063e:	c3                   	retq   

000000804160063f <serial_proc_data>:
}

static __inline uint8_t
inb(int port) {
  uint8_t data;
  __asm __volatile("inb %w1,%0"
  804160063f:	ba fd 03 00 00       	mov    $0x3fd,%edx
  8041600644:	ec                   	in     (%dx),%al
  }
}

static int
serial_proc_data(void) {
  if (!(inb(COM1 + COM_LSR) & COM_LSR_DATA))
  8041600645:	a8 01                	test   $0x1,%al
  8041600647:	74 0a                	je     8041600653 <serial_proc_data+0x14>
  8041600649:	ba f8 03 00 00       	mov    $0x3f8,%edx
  804160064e:	ec                   	in     (%dx),%al
    return -1;
  return inb(COM1 + COM_RX);
  804160064f:	0f b6 c0             	movzbl %al,%eax
  8041600652:	c3                   	retq   
    return -1;
  8041600653:	b8 ff ff ff ff       	mov    $0xffffffff,%eax
}
  8041600658:	c3                   	retq   

0000008041600659 <cons_intr>:
} cons;

// called by device interrupt routines to feed input characters
// into the circular console input buffer.
static void
cons_intr(int (*proc)(void)) {
  8041600659:	55                   	push   %rbp
  804160065a:	48 89 e5             	mov    %rsp,%rbp
  804160065d:	41 54                	push   %r12
  804160065f:	53                   	push   %rbx
  8041600660:	49 89 fc             	mov    %rdi,%r12
  int c;

  while ((c = (*proc)()) != -1) {
    if (c == 0)
      continue;
    cons.buf[cons.wpos++] = c;
  8041600663:	48 bb c0 42 88 41 80 	movabs $0x80418842c0,%rbx
  804160066a:	00 00 00 
  while ((c = (*proc)()) != -1) {
  804160066d:	41 ff d4             	callq  *%r12
  8041600670:	83 f8 ff             	cmp    $0xffffffff,%eax
  8041600673:	74 28                	je     804160069d <cons_intr+0x44>
    if (c == 0)
  8041600675:	85 c0                	test   %eax,%eax
  8041600677:	74 f4                	je     804160066d <cons_intr+0x14>
    cons.buf[cons.wpos++] = c;
  8041600679:	8b 8b 04 02 00 00    	mov    0x204(%rbx),%ecx
  804160067f:	8d 51 01             	lea    0x1(%rcx),%edx
  8041600682:	89 c9                	mov    %ecx,%ecx
  8041600684:	88 04 0b             	mov    %al,(%rbx,%rcx,1)
    if (cons.wpos == CONSBUFSIZE)
  8041600687:	81 fa 00 02 00 00    	cmp    $0x200,%edx
      cons.wpos = 0;
  804160068d:	b8 00 00 00 00       	mov    $0x0,%eax
  8041600692:	0f 44 d0             	cmove  %eax,%edx
  8041600695:	89 93 04 02 00 00    	mov    %edx,0x204(%rbx)
  804160069b:	eb d0                	jmp    804160066d <cons_intr+0x14>
  }
}
  804160069d:	5b                   	pop    %rbx
  804160069e:	41 5c                	pop    %r12
  80416006a0:	5d                   	pop    %rbp
  80416006a1:	c3                   	retq   

00000080416006a2 <kbd_proc_data>:
kbd_proc_data(void) {
  80416006a2:	55                   	push   %rbp
  80416006a3:	48 89 e5             	mov    %rsp,%rbp
  80416006a6:	53                   	push   %rbx
  80416006a7:	48 83 ec 08          	sub    $0x8,%rsp
  80416006ab:	ba 64 00 00 00       	mov    $0x64,%edx
  80416006b0:	ec                   	in     (%dx),%al
  if ((inb(KBSTATP) & KBS_DIB) == 0)
  80416006b1:	a8 01                	test   $0x1,%al
  80416006b3:	0f 84 31 01 00 00    	je     80416007ea <kbd_proc_data+0x148>
  80416006b9:	ba 60 00 00 00       	mov    $0x60,%edx
  80416006be:	ec                   	in     (%dx),%al
  80416006bf:	89 c2                	mov    %eax,%edx
  if (data == 0xE0) {
  80416006c1:	3c e0                	cmp    $0xe0,%al
  80416006c3:	0f 84 84 00 00 00    	je     804160074d <kbd_proc_data+0xab>
  } else if (data & 0x80) {
  80416006c9:	84 c0                	test   %al,%al
  80416006cb:	0f 88 97 00 00 00    	js     8041600768 <kbd_proc_data+0xc6>
  } else if (shift & E0ESC) {
  80416006d1:	48 bf a0 42 88 41 80 	movabs $0x80418842a0,%rdi
  80416006d8:	00 00 00 
  80416006db:	8b 0f                	mov    (%rdi),%ecx
  80416006dd:	f6 c1 40             	test   $0x40,%cl
  80416006e0:	74 0c                	je     80416006ee <kbd_proc_data+0x4c>
    data |= 0x80;
  80416006e2:	83 c8 80             	or     $0xffffff80,%eax
  80416006e5:	89 c2                	mov    %eax,%edx
    shift &= ~E0ESC;
  80416006e7:	89 c8                	mov    %ecx,%eax
  80416006e9:	83 e0 bf             	and    $0xffffffbf,%eax
  80416006ec:	89 07                	mov    %eax,(%rdi)
  shift |= shiftcode[data];
  80416006ee:	0f b6 f2             	movzbl %dl,%esi
  80416006f1:	48 b8 c0 ce 60 41 80 	movabs $0x804160cec0,%rax
  80416006f8:	00 00 00 
  80416006fb:	0f b6 04 30          	movzbl (%rax,%rsi,1),%eax
  80416006ff:	48 b9 a0 42 88 41 80 	movabs $0x80418842a0,%rcx
  8041600706:	00 00 00 
  8041600709:	0b 01                	or     (%rcx),%eax
  shift ^= togglecode[data];
  804160070b:	48 bf c0 cd 60 41 80 	movabs $0x804160cdc0,%rdi
  8041600712:	00 00 00 
  8041600715:	0f b6 34 37          	movzbl (%rdi,%rsi,1),%esi
  8041600719:	31 f0                	xor    %esi,%eax
  804160071b:	89 01                	mov    %eax,(%rcx)
  c = charcode[shift & (CTL | SHIFT)][data];
  804160071d:	89 c6                	mov    %eax,%esi
  804160071f:	83 e6 03             	and    $0x3,%esi
  8041600722:	0f b6 d2             	movzbl %dl,%edx
  8041600725:	48 b9 a0 cd 60 41 80 	movabs $0x804160cda0,%rcx
  804160072c:	00 00 00 
  804160072f:	48 8b 0c f1          	mov    (%rcx,%rsi,8),%rcx
  8041600733:	0f b6 14 11          	movzbl (%rcx,%rdx,1),%edx
  8041600737:	0f b6 da             	movzbl %dl,%ebx
  if (shift & CAPSLOCK) {
  804160073a:	a8 08                	test   $0x8,%al
  804160073c:	74 73                	je     80416007b1 <kbd_proc_data+0x10f>
    if ('a' <= c && c <= 'z')
  804160073e:	89 da                	mov    %ebx,%edx
  8041600740:	8d 4b 9f             	lea    -0x61(%rbx),%ecx
  8041600743:	83 f9 19             	cmp    $0x19,%ecx
  8041600746:	77 5d                	ja     80416007a5 <kbd_proc_data+0x103>
      c += 'A' - 'a';
  8041600748:	83 eb 20             	sub    $0x20,%ebx
  if (!(~shift & (CTL | ALT)) && c == KEY_DEL) {
  804160074b:	eb 12                	jmp    804160075f <kbd_proc_data+0xbd>
    shift |= E0ESC;
  804160074d:	48 b8 a0 42 88 41 80 	movabs $0x80418842a0,%rax
  8041600754:	00 00 00 
  8041600757:	83 08 40             	orl    $0x40,(%rax)
    return 0;
  804160075a:	bb 00 00 00 00       	mov    $0x0,%ebx
}
  804160075f:	89 d8                	mov    %ebx,%eax
  8041600761:	48 83 c4 08          	add    $0x8,%rsp
  8041600765:	5b                   	pop    %rbx
  8041600766:	5d                   	pop    %rbp
  8041600767:	c3                   	retq   
    data = (shift & E0ESC ? data : data & 0x7F);
  8041600768:	48 bf a0 42 88 41 80 	movabs $0x80418842a0,%rdi
  804160076f:	00 00 00 
  8041600772:	8b 0f                	mov    (%rdi),%ecx
  8041600774:	89 ce                	mov    %ecx,%esi
  8041600776:	83 e6 40             	and    $0x40,%esi
  8041600779:	83 e0 7f             	and    $0x7f,%eax
  804160077c:	85 f6                	test   %esi,%esi
  804160077e:	0f 44 d0             	cmove  %eax,%edx
    shift &= ~(shiftcode[data] | E0ESC);
  8041600781:	0f b6 d2             	movzbl %dl,%edx
  8041600784:	48 b8 c0 ce 60 41 80 	movabs $0x804160cec0,%rax
  804160078b:	00 00 00 
  804160078e:	0f b6 04 10          	movzbl (%rax,%rdx,1),%eax
  8041600792:	83 c8 40             	or     $0x40,%eax
  8041600795:	0f b6 c0             	movzbl %al,%eax
  8041600798:	f7 d0                	not    %eax
  804160079a:	21 c8                	and    %ecx,%eax
  804160079c:	89 07                	mov    %eax,(%rdi)
    return 0;
  804160079e:	bb 00 00 00 00       	mov    $0x0,%ebx
  80416007a3:	eb ba                	jmp    804160075f <kbd_proc_data+0xbd>
    else if ('A' <= c && c <= 'Z')
  80416007a5:	83 ea 41             	sub    $0x41,%edx
      c += 'a' - 'A';
  80416007a8:	8d 4b 20             	lea    0x20(%rbx),%ecx
  80416007ab:	83 fa 1a             	cmp    $0x1a,%edx
  80416007ae:	0f 42 d9             	cmovb  %ecx,%ebx
  if (!(~shift & (CTL | ALT)) && c == KEY_DEL) {
  80416007b1:	f7 d0                	not    %eax
  80416007b3:	a8 06                	test   $0x6,%al
  80416007b5:	75 a8                	jne    804160075f <kbd_proc_data+0xbd>
  80416007b7:	81 fb e9 00 00 00    	cmp    $0xe9,%ebx
  80416007bd:	75 a0                	jne    804160075f <kbd_proc_data+0xbd>
    cprintf("Rebooting!\n");
  80416007bf:	48 bf 66 cd 60 41 80 	movabs $0x804160cd66,%rdi
  80416007c6:	00 00 00 
  80416007c9:	b8 00 00 00 00       	mov    $0x0,%eax
  80416007ce:	48 ba 0d 92 60 41 80 	movabs $0x804160920d,%rdx
  80416007d5:	00 00 00 
  80416007d8:	ff d2                	callq  *%rdx
                   : "memory", "cc");
}

static __inline void
outb(int port, uint8_t data) {
  __asm __volatile("outb %0,%w1"
  80416007da:	b8 03 00 00 00       	mov    $0x3,%eax
  80416007df:	ba 92 00 00 00       	mov    $0x92,%edx
  80416007e4:	ee                   	out    %al,(%dx)
  80416007e5:	e9 75 ff ff ff       	jmpq   804160075f <kbd_proc_data+0xbd>
    return -1;
  80416007ea:	bb ff ff ff ff       	mov    $0xffffffff,%ebx
  80416007ef:	e9 6b ff ff ff       	jmpq   804160075f <kbd_proc_data+0xbd>

00000080416007f4 <draw_char>:
        buffer[uefi_hres * SYMBOL_SIZE * y + uefi_hres * h + SYMBOL_SIZE * x + w] = color;
  80416007f4:	48 b8 d4 44 88 41 80 	movabs $0x80418844d4,%rax
  80416007fb:	00 00 00 
  80416007fe:	44 8b 10             	mov    (%rax),%r10d
  8041600801:	41 0f af d2          	imul   %r10d,%edx
  8041600805:	01 f2                	add    %esi,%edx
  8041600807:	44 8d 0c d5 00 00 00 	lea    0x0(,%rdx,8),%r9d
  804160080e:	00 
  char *p = &(font8x8_basic[pos][0]); // Size of a font's character
  804160080f:	4d 0f be c0          	movsbq %r8b,%r8
  8041600813:	48 b8 20 03 62 41 80 	movabs $0x8041620320,%rax
  804160081a:	00 00 00 
  804160081d:	4a 8d 34 c0          	lea    (%rax,%r8,8),%rsi
  8041600821:	4c 8d 46 08          	lea    0x8(%rsi),%r8
  8041600825:	eb 25                	jmp    804160084c <draw_char+0x58>
    for (int w = 0; w < 8; w++) {
  8041600827:	83 c0 01             	add    $0x1,%eax
  804160082a:	83 f8 08             	cmp    $0x8,%eax
  804160082d:	74 11                	je     8041600840 <draw_char+0x4c>
      if ((p[h] >> (w)) & 1) {
  804160082f:	0f be 16             	movsbl (%rsi),%edx
  8041600832:	0f a3 c2             	bt     %eax,%edx
  8041600835:	73 f0                	jae    8041600827 <draw_char+0x33>
        buffer[uefi_hres * SYMBOL_SIZE * y + uefi_hres * h + SYMBOL_SIZE * x + w] = color;
  8041600837:	42 8d 14 08          	lea    (%rax,%r9,1),%edx
  804160083b:	89 0c 97             	mov    %ecx,(%rdi,%rdx,4)
  804160083e:	eb e7                	jmp    8041600827 <draw_char+0x33>
  for (int h = 0; h < 8; h++) {
  8041600840:	45 01 d1             	add    %r10d,%r9d
  8041600843:	48 83 c6 01          	add    $0x1,%rsi
  8041600847:	4c 39 c6             	cmp    %r8,%rsi
  804160084a:	74 07                	je     8041600853 <draw_char+0x5f>
    for (int w = 0; w < 8; w++) {
  804160084c:	b8 00 00 00 00       	mov    $0x0,%eax
  8041600851:	eb dc                	jmp    804160082f <draw_char+0x3b>
}
  8041600853:	c3                   	retq   

0000008041600854 <cons_putc>:
  __asm __volatile("inb %w1,%0"
  8041600854:	ba fd 03 00 00       	mov    $0x3fd,%edx
  8041600859:	ec                   	in     (%dx),%al
       !(inb(COM1 + COM_LSR) & COM_LSR_TXRDY) && i < 12800;
  804160085a:	a8 20                	test   $0x20,%al
  804160085c:	75 29                	jne    8041600887 <cons_putc+0x33>
  for (i = 0;
  804160085e:	be 00 00 00 00       	mov    $0x0,%esi
  8041600863:	b9 84 00 00 00       	mov    $0x84,%ecx
  8041600868:	41 b8 fd 03 00 00    	mov    $0x3fd,%r8d
  804160086e:	89 ca                	mov    %ecx,%edx
  8041600870:	ec                   	in     (%dx),%al
  8041600871:	ec                   	in     (%dx),%al
  8041600872:	ec                   	in     (%dx),%al
  8041600873:	ec                   	in     (%dx),%al
       i++)
  8041600874:	83 c6 01             	add    $0x1,%esi
  8041600877:	44 89 c2             	mov    %r8d,%edx
  804160087a:	ec                   	in     (%dx),%al
       !(inb(COM1 + COM_LSR) & COM_LSR_TXRDY) && i < 12800;
  804160087b:	a8 20                	test   $0x20,%al
  804160087d:	75 08                	jne    8041600887 <cons_putc+0x33>
  804160087f:	81 fe ff 31 00 00    	cmp    $0x31ff,%esi
  8041600885:	7e e7                	jle    804160086e <cons_putc+0x1a>
  outb(COM1 + COM_TX, c);
  8041600887:	41 89 f8             	mov    %edi,%r8d
  __asm __volatile("outb %0,%w1"
  804160088a:	ba f8 03 00 00       	mov    $0x3f8,%edx
  804160088f:	89 f8                	mov    %edi,%eax
  8041600891:	ee                   	out    %al,(%dx)
  __asm __volatile("inb %w1,%0"
  8041600892:	ba 79 03 00 00       	mov    $0x379,%edx
  8041600897:	ec                   	in     (%dx),%al
  for (i = 0; !(inb(0x378 + 1) & 0x80) && i < 12800; i++)
  8041600898:	84 c0                	test   %al,%al
  804160089a:	78 29                	js     80416008c5 <cons_putc+0x71>
  804160089c:	be 00 00 00 00       	mov    $0x0,%esi
  80416008a1:	b9 84 00 00 00       	mov    $0x84,%ecx
  80416008a6:	41 b9 79 03 00 00    	mov    $0x379,%r9d
  80416008ac:	89 ca                	mov    %ecx,%edx
  80416008ae:	ec                   	in     (%dx),%al
  80416008af:	ec                   	in     (%dx),%al
  80416008b0:	ec                   	in     (%dx),%al
  80416008b1:	ec                   	in     (%dx),%al
  80416008b2:	83 c6 01             	add    $0x1,%esi
  80416008b5:	44 89 ca             	mov    %r9d,%edx
  80416008b8:	ec                   	in     (%dx),%al
  80416008b9:	81 fe ff 31 00 00    	cmp    $0x31ff,%esi
  80416008bf:	7f 04                	jg     80416008c5 <cons_putc+0x71>
  80416008c1:	84 c0                	test   %al,%al
  80416008c3:	79 e7                	jns    80416008ac <cons_putc+0x58>
  __asm __volatile("outb %0,%w1"
  80416008c5:	ba 78 03 00 00       	mov    $0x378,%edx
  80416008ca:	44 89 c0             	mov    %r8d,%eax
  80416008cd:	ee                   	out    %al,(%dx)
  80416008ce:	ba 7a 03 00 00       	mov    $0x37a,%edx
  80416008d3:	b8 0d 00 00 00       	mov    $0xd,%eax
  80416008d8:	ee                   	out    %al,(%dx)
  80416008d9:	b8 08 00 00 00       	mov    $0x8,%eax
  80416008de:	ee                   	out    %al,(%dx)
  if (!graphics_exists) {
  80416008df:	48 b8 dc 44 88 41 80 	movabs $0x80418844dc,%rax
  80416008e6:	00 00 00 
  80416008e9:	80 38 00             	cmpb   $0x0,(%rax)
  80416008ec:	0f 84 42 02 00 00    	je     8041600b34 <cons_putc+0x2e0>
  return 0;
}

// output a character to the console
static void
cons_putc(int c) {
  80416008f2:	55                   	push   %rbp
  80416008f3:	48 89 e5             	mov    %rsp,%rbp
  80416008f6:	41 54                	push   %r12
  80416008f8:	53                   	push   %rbx
  if (!(c & ~0xFF))
  80416008f9:	89 fa                	mov    %edi,%edx
  80416008fb:	81 e2 00 ff ff ff    	and    $0xffffff00,%edx
    c |= 0x0700;
  8041600901:	89 f8                	mov    %edi,%eax
  8041600903:	80 cc 07             	or     $0x7,%ah
  8041600906:	85 d2                	test   %edx,%edx
  8041600908:	0f 44 f8             	cmove  %eax,%edi
  switch (c & 0xff) {
  804160090b:	40 0f b6 c7          	movzbl %dil,%eax
  804160090f:	83 f8 09             	cmp    $0x9,%eax
  8041600912:	0f 84 e1 00 00 00    	je     80416009f9 <cons_putc+0x1a5>
  8041600918:	7e 5c                	jle    8041600976 <cons_putc+0x122>
  804160091a:	83 f8 0a             	cmp    $0xa,%eax
  804160091d:	0f 84 b8 00 00 00    	je     80416009db <cons_putc+0x187>
  8041600923:	83 f8 0d             	cmp    $0xd,%eax
  8041600926:	0f 85 ff 00 00 00    	jne    8041600a2b <cons_putc+0x1d7>
      crt_pos -= (crt_pos % crt_cols);
  804160092c:	48 be c8 44 88 41 80 	movabs $0x80418844c8,%rsi
  8041600933:	00 00 00 
  8041600936:	0f b7 0e             	movzwl (%rsi),%ecx
  8041600939:	0f b7 c1             	movzwl %cx,%eax
  804160093c:	48 bb d0 44 88 41 80 	movabs $0x80418844d0,%rbx
  8041600943:	00 00 00 
  8041600946:	ba 00 00 00 00       	mov    $0x0,%edx
  804160094b:	f7 33                	divl   (%rbx)
  804160094d:	29 d1                	sub    %edx,%ecx
  804160094f:	66 89 0e             	mov    %cx,(%rsi)
  if (crt_pos >= crt_size) {
  8041600952:	48 b8 c8 44 88 41 80 	movabs $0x80418844c8,%rax
  8041600959:	00 00 00 
  804160095c:	0f b7 10             	movzwl (%rax),%edx
  804160095f:	48 b8 cc 44 88 41 80 	movabs $0x80418844cc,%rax
  8041600966:	00 00 00 
  8041600969:	3b 10                	cmp    (%rax),%edx
  804160096b:	0f 83 0f 01 00 00    	jae    8041600a80 <cons_putc+0x22c>
  serial_putc(c);
  lpt_putc(c);
  fb_putc(c);
}
  8041600971:	5b                   	pop    %rbx
  8041600972:	41 5c                	pop    %r12
  8041600974:	5d                   	pop    %rbp
  8041600975:	c3                   	retq   
  switch (c & 0xff) {
  8041600976:	83 f8 08             	cmp    $0x8,%eax
  8041600979:	0f 85 ac 00 00 00    	jne    8041600a2b <cons_putc+0x1d7>
      if (crt_pos > 0) {
  804160097f:	66 a1 c8 44 88 41 80 	movabs 0x80418844c8,%ax
  8041600986:	00 00 00 
  8041600989:	66 85 c0             	test   %ax,%ax
  804160098c:	74 c4                	je     8041600952 <cons_putc+0xfe>
        crt_pos--;
  804160098e:	83 e8 01             	sub    $0x1,%eax
  8041600991:	66 a3 c8 44 88 41 80 	movabs %ax,0x80418844c8
  8041600998:	00 00 00 
        draw_char(crt_buf, crt_pos % crt_cols, crt_pos / crt_cols, 0x0, 0x8);
  804160099b:	0f b7 c0             	movzwl %ax,%eax
  804160099e:	48 bb d0 44 88 41 80 	movabs $0x80418844d0,%rbx
  80416009a5:	00 00 00 
  80416009a8:	8b 1b                	mov    (%rbx),%ebx
  80416009aa:	ba 00 00 00 00       	mov    $0x0,%edx
  80416009af:	f7 f3                	div    %ebx
  80416009b1:	89 d6                	mov    %edx,%esi
  80416009b3:	41 b8 08 00 00 00    	mov    $0x8,%r8d
  80416009b9:	b9 00 00 00 00       	mov    $0x0,%ecx
  80416009be:	89 c2                	mov    %eax,%edx
  80416009c0:	48 bf 00 e0 c2 3e 80 	movabs $0x803ec2e000,%rdi
  80416009c7:	00 00 00 
  80416009ca:	48 b8 f4 07 60 41 80 	movabs $0x80416007f4,%rax
  80416009d1:	00 00 00 
  80416009d4:	ff d0                	callq  *%rax
  80416009d6:	e9 77 ff ff ff       	jmpq   8041600952 <cons_putc+0xfe>
      crt_pos += crt_cols;
  80416009db:	48 b8 c8 44 88 41 80 	movabs $0x80418844c8,%rax
  80416009e2:	00 00 00 
  80416009e5:	48 bb d0 44 88 41 80 	movabs $0x80418844d0,%rbx
  80416009ec:	00 00 00 
  80416009ef:	8b 13                	mov    (%rbx),%edx
  80416009f1:	66 01 10             	add    %dx,(%rax)
  80416009f4:	e9 33 ff ff ff       	jmpq   804160092c <cons_putc+0xd8>
      cons_putc(' ');
  80416009f9:	bf 20 00 00 00       	mov    $0x20,%edi
  80416009fe:	48 bb 54 08 60 41 80 	movabs $0x8041600854,%rbx
  8041600a05:	00 00 00 
  8041600a08:	ff d3                	callq  *%rbx
      cons_putc(' ');
  8041600a0a:	bf 20 00 00 00       	mov    $0x20,%edi
  8041600a0f:	ff d3                	callq  *%rbx
      cons_putc(' ');
  8041600a11:	bf 20 00 00 00       	mov    $0x20,%edi
  8041600a16:	ff d3                	callq  *%rbx
      cons_putc(' ');
  8041600a18:	bf 20 00 00 00       	mov    $0x20,%edi
  8041600a1d:	ff d3                	callq  *%rbx
      cons_putc(' ');
  8041600a1f:	bf 20 00 00 00       	mov    $0x20,%edi
  8041600a24:	ff d3                	callq  *%rbx
      break;
  8041600a26:	e9 27 ff ff ff       	jmpq   8041600952 <cons_putc+0xfe>
      draw_char(crt_buf, crt_pos % crt_cols, crt_pos / crt_cols, 0xffffffff, (char)c); /* write the character */
  8041600a2b:	49 bc c8 44 88 41 80 	movabs $0x80418844c8,%r12
  8041600a32:	00 00 00 
  8041600a35:	41 0f b7 1c 24       	movzwl (%r12),%ebx
  8041600a3a:	0f b7 c3             	movzwl %bx,%eax
  8041600a3d:	48 be d0 44 88 41 80 	movabs $0x80418844d0,%rsi
  8041600a44:	00 00 00 
  8041600a47:	8b 36                	mov    (%rsi),%esi
  8041600a49:	ba 00 00 00 00       	mov    $0x0,%edx
  8041600a4e:	f7 f6                	div    %esi
  8041600a50:	89 d6                	mov    %edx,%esi
  8041600a52:	44 0f be c7          	movsbl %dil,%r8d
  8041600a56:	b9 ff ff ff ff       	mov    $0xffffffff,%ecx
  8041600a5b:	89 c2                	mov    %eax,%edx
  8041600a5d:	48 bf 00 e0 c2 3e 80 	movabs $0x803ec2e000,%rdi
  8041600a64:	00 00 00 
  8041600a67:	48 b8 f4 07 60 41 80 	movabs $0x80416007f4,%rax
  8041600a6e:	00 00 00 
  8041600a71:	ff d0                	callq  *%rax
      crt_pos++;
  8041600a73:	83 c3 01             	add    $0x1,%ebx
  8041600a76:	66 41 89 1c 24       	mov    %bx,(%r12)
      break;
  8041600a7b:	e9 d2 fe ff ff       	jmpq   8041600952 <cons_putc+0xfe>
    memmove(crt_buf, crt_buf + uefi_hres * SYMBOL_SIZE, uefi_hres * (uefi_vres - SYMBOL_SIZE) * sizeof(uint32_t));
  8041600a80:	48 bb d4 44 88 41 80 	movabs $0x80418844d4,%rbx
  8041600a87:	00 00 00 
  8041600a8a:	8b 03                	mov    (%rbx),%eax
  8041600a8c:	49 bc d8 44 88 41 80 	movabs $0x80418844d8,%r12
  8041600a93:	00 00 00 
  8041600a96:	41 8b 3c 24          	mov    (%r12),%edi
  8041600a9a:	8d 57 f8             	lea    -0x8(%rdi),%edx
  8041600a9d:	0f af d0             	imul   %eax,%edx
  8041600aa0:	48 c1 e2 02          	shl    $0x2,%rdx
  8041600aa4:	c1 e0 03             	shl    $0x3,%eax
  8041600aa7:	89 c0                	mov    %eax,%eax
  8041600aa9:	48 bf 00 e0 c2 3e 80 	movabs $0x803ec2e000,%rdi
  8041600ab0:	00 00 00 
  8041600ab3:	48 8d 34 87          	lea    (%rdi,%rax,4),%rsi
  8041600ab7:	48 b8 f6 c4 60 41 80 	movabs $0x804160c4f6,%rax
  8041600abe:	00 00 00 
  8041600ac1:	ff d0                	callq  *%rax
    for (i = uefi_hres * (uefi_vres - (uefi_vres % SYMBOL_SIZE) - SYMBOL_SIZE); i < uefi_hres * uefi_vres; i++)
  8041600ac3:	41 8b 04 24          	mov    (%r12),%eax
  8041600ac7:	8b 0b                	mov    (%rbx),%ecx
  8041600ac9:	89 c6                	mov    %eax,%esi
  8041600acb:	83 e6 f8             	and    $0xfffffff8,%esi
  8041600ace:	83 ee 08             	sub    $0x8,%esi
  8041600ad1:	0f af f1             	imul   %ecx,%esi
  8041600ad4:	0f af c8             	imul   %eax,%ecx
  8041600ad7:	39 f1                	cmp    %esi,%ecx
  8041600ad9:	76 3b                	jbe    8041600b16 <cons_putc+0x2c2>
  8041600adb:	48 63 fe             	movslq %esi,%rdi
  8041600ade:	48 b8 00 e0 c2 3e 80 	movabs $0x803ec2e000,%rax
  8041600ae5:	00 00 00 
  8041600ae8:	48 8d 04 b8          	lea    (%rax,%rdi,4),%rax
  8041600aec:	8d 51 ff             	lea    -0x1(%rcx),%edx
  8041600aef:	89 d1                	mov    %edx,%ecx
  8041600af1:	29 f1                	sub    %esi,%ecx
  8041600af3:	48 ba 01 b8 b0 0f 20 	movabs $0x200fb0b801,%rdx
  8041600afa:	00 00 00 
  8041600afd:	48 01 fa             	add    %rdi,%rdx
  8041600b00:	48 01 ca             	add    %rcx,%rdx
  8041600b03:	48 c1 e2 02          	shl    $0x2,%rdx
      crt_buf[i] = 0;
  8041600b07:	c7 00 00 00 00 00    	movl   $0x0,(%rax)
    for (i = uefi_hres * (uefi_vres - (uefi_vres % SYMBOL_SIZE) - SYMBOL_SIZE); i < uefi_hres * uefi_vres; i++)
  8041600b0d:	48 83 c0 04          	add    $0x4,%rax
  8041600b11:	48 39 c2             	cmp    %rax,%rdx
  8041600b14:	75 f1                	jne    8041600b07 <cons_putc+0x2b3>
    crt_pos -= crt_cols;
  8041600b16:	48 b8 c8 44 88 41 80 	movabs $0x80418844c8,%rax
  8041600b1d:	00 00 00 
  8041600b20:	48 bb d0 44 88 41 80 	movabs $0x80418844d0,%rbx
  8041600b27:	00 00 00 
  8041600b2a:	8b 13                	mov    (%rbx),%edx
  8041600b2c:	66 29 10             	sub    %dx,(%rax)
}
  8041600b2f:	e9 3d fe ff ff       	jmpq   8041600971 <cons_putc+0x11d>
  8041600b34:	c3                   	retq   

0000008041600b35 <serial_intr>:
  if (serial_exists)
  8041600b35:	48 b8 ca 44 88 41 80 	movabs $0x80418844ca,%rax
  8041600b3c:	00 00 00 
  8041600b3f:	80 38 00             	cmpb   $0x0,(%rax)
  8041600b42:	75 01                	jne    8041600b45 <serial_intr+0x10>
  8041600b44:	c3                   	retq   
serial_intr(void) {
  8041600b45:	55                   	push   %rbp
  8041600b46:	48 89 e5             	mov    %rsp,%rbp
    cons_intr(serial_proc_data);
  8041600b49:	48 bf 3f 06 60 41 80 	movabs $0x804160063f,%rdi
  8041600b50:	00 00 00 
  8041600b53:	48 b8 59 06 60 41 80 	movabs $0x8041600659,%rax
  8041600b5a:	00 00 00 
  8041600b5d:	ff d0                	callq  *%rax
}
  8041600b5f:	5d                   	pop    %rbp
  8041600b60:	c3                   	retq   

0000008041600b61 <fb_init>:
fb_init(void) {
  8041600b61:	55                   	push   %rbp
  8041600b62:	48 89 e5             	mov    %rsp,%rbp
  LOADER_PARAMS *lp = (LOADER_PARAMS *)uefi_lp;
  8041600b65:	48 b8 00 00 62 41 80 	movabs $0x8041620000,%rax
  8041600b6c:	00 00 00 
  8041600b6f:	48 8b 08             	mov    (%rax),%rcx
  uefi_vres         = lp->VerticalResolution;
  8041600b72:	8b 51 4c             	mov    0x4c(%rcx),%edx
  8041600b75:	89 d0                	mov    %edx,%eax
  8041600b77:	a3 d8 44 88 41 80 00 	movabs %eax,0x80418844d8
  8041600b7e:	00 00 
  uefi_hres         = lp->HorizontalResolution;
  8041600b80:	8b 41 50             	mov    0x50(%rcx),%eax
  8041600b83:	a3 d4 44 88 41 80 00 	movabs %eax,0x80418844d4
  8041600b8a:	00 00 
  crt_cols          = uefi_hres / SYMBOL_SIZE;
  8041600b8c:	c1 e8 03             	shr    $0x3,%eax
  8041600b8f:	89 c6                	mov    %eax,%esi
  8041600b91:	a3 d0 44 88 41 80 00 	movabs %eax,0x80418844d0
  8041600b98:	00 00 
  crt_rows          = uefi_vres / SYMBOL_SIZE;
  8041600b9a:	c1 ea 03             	shr    $0x3,%edx
  crt_size          = crt_rows * crt_cols;
  8041600b9d:	0f af d0             	imul   %eax,%edx
  8041600ba0:	89 d0                	mov    %edx,%eax
  8041600ba2:	a3 cc 44 88 41 80 00 	movabs %eax,0x80418844cc
  8041600ba9:	00 00 
  crt_pos           = crt_cols;
  8041600bab:	89 f0                	mov    %esi,%eax
  8041600bad:	66 a3 c8 44 88 41 80 	movabs %ax,0x80418844c8
  8041600bb4:	00 00 00 
  memset(crt_buf, 0, lp->FrameBufferSize);
  8041600bb7:	8b 51 48             	mov    0x48(%rcx),%edx
  8041600bba:	be 00 00 00 00       	mov    $0x0,%esi
  8041600bbf:	48 bf 00 e0 c2 3e 80 	movabs $0x803ec2e000,%rdi
  8041600bc6:	00 00 00 
  8041600bc9:	48 b8 b3 c4 60 41 80 	movabs $0x804160c4b3,%rax
  8041600bd0:	00 00 00 
  8041600bd3:	ff d0                	callq  *%rax
  graphics_exists = true;
  8041600bd5:	48 b8 dc 44 88 41 80 	movabs $0x80418844dc,%rax
  8041600bdc:	00 00 00 
  8041600bdf:	c6 00 01             	movb   $0x1,(%rax)
}
  8041600be2:	5d                   	pop    %rbp
  8041600be3:	c3                   	retq   

0000008041600be4 <kbd_intr>:
kbd_intr(void) {
  8041600be4:	55                   	push   %rbp
  8041600be5:	48 89 e5             	mov    %rsp,%rbp
  cons_intr(kbd_proc_data);
  8041600be8:	48 bf a2 06 60 41 80 	movabs $0x80416006a2,%rdi
  8041600bef:	00 00 00 
  8041600bf2:	48 b8 59 06 60 41 80 	movabs $0x8041600659,%rax
  8041600bf9:	00 00 00 
  8041600bfc:	ff d0                	callq  *%rax
}
  8041600bfe:	5d                   	pop    %rbp
  8041600bff:	c3                   	retq   

0000008041600c00 <cons_getc>:
cons_getc(void) {
  8041600c00:	55                   	push   %rbp
  8041600c01:	48 89 e5             	mov    %rsp,%rbp
  serial_intr();
  8041600c04:	48 b8 35 0b 60 41 80 	movabs $0x8041600b35,%rax
  8041600c0b:	00 00 00 
  8041600c0e:	ff d0                	callq  *%rax
  kbd_intr();
  8041600c10:	48 b8 e4 0b 60 41 80 	movabs $0x8041600be4,%rax
  8041600c17:	00 00 00 
  8041600c1a:	ff d0                	callq  *%rax
  if (cons.rpos != cons.wpos) {
  8041600c1c:	48 b9 c0 42 88 41 80 	movabs $0x80418842c0,%rcx
  8041600c23:	00 00 00 
  8041600c26:	8b 91 00 02 00 00    	mov    0x200(%rcx),%edx
  return 0;
  8041600c2c:	b8 00 00 00 00       	mov    $0x0,%eax
  if (cons.rpos != cons.wpos) {
  8041600c31:	3b 91 04 02 00 00    	cmp    0x204(%rcx),%edx
  8041600c37:	74 21                	je     8041600c5a <cons_getc+0x5a>
    c = cons.buf[cons.rpos++];
  8041600c39:	8d 4a 01             	lea    0x1(%rdx),%ecx
  8041600c3c:	48 b8 c0 42 88 41 80 	movabs $0x80418842c0,%rax
  8041600c43:	00 00 00 
  8041600c46:	89 88 00 02 00 00    	mov    %ecx,0x200(%rax)
  8041600c4c:	89 d2                	mov    %edx,%edx
  8041600c4e:	0f b6 04 10          	movzbl (%rax,%rdx,1),%eax
    if (cons.rpos == CONSBUFSIZE)
  8041600c52:	81 f9 00 02 00 00    	cmp    $0x200,%ecx
  8041600c58:	74 02                	je     8041600c5c <cons_getc+0x5c>
}
  8041600c5a:	5d                   	pop    %rbp
  8041600c5b:	c3                   	retq   
      cons.rpos = 0;
  8041600c5c:	48 be c0 44 88 41 80 	movabs $0x80418844c0,%rsi
  8041600c63:	00 00 00 
  8041600c66:	c7 06 00 00 00 00    	movl   $0x0,(%rsi)
  8041600c6c:	eb ec                	jmp    8041600c5a <cons_getc+0x5a>

0000008041600c6e <cons_init>:
  8041600c6e:	b9 00 00 00 00       	mov    $0x0,%ecx
  8041600c73:	bf fa 03 00 00       	mov    $0x3fa,%edi
  8041600c78:	89 c8                	mov    %ecx,%eax
  8041600c7a:	89 fa                	mov    %edi,%edx
  8041600c7c:	ee                   	out    %al,(%dx)
  8041600c7d:	41 b9 fb 03 00 00    	mov    $0x3fb,%r9d
  8041600c83:	b8 80 ff ff ff       	mov    $0xffffff80,%eax
  8041600c88:	44 89 ca             	mov    %r9d,%edx
  8041600c8b:	ee                   	out    %al,(%dx)
  8041600c8c:	be f8 03 00 00       	mov    $0x3f8,%esi
  8041600c91:	b8 0c 00 00 00       	mov    $0xc,%eax
  8041600c96:	89 f2                	mov    %esi,%edx
  8041600c98:	ee                   	out    %al,(%dx)
  8041600c99:	41 b8 f9 03 00 00    	mov    $0x3f9,%r8d
  8041600c9f:	89 c8                	mov    %ecx,%eax
  8041600ca1:	44 89 c2             	mov    %r8d,%edx
  8041600ca4:	ee                   	out    %al,(%dx)
  8041600ca5:	b8 03 00 00 00       	mov    $0x3,%eax
  8041600caa:	44 89 ca             	mov    %r9d,%edx
  8041600cad:	ee                   	out    %al,(%dx)
  8041600cae:	ba fc 03 00 00       	mov    $0x3fc,%edx
  8041600cb3:	89 c8                	mov    %ecx,%eax
  8041600cb5:	ee                   	out    %al,(%dx)
  8041600cb6:	b8 01 00 00 00       	mov    $0x1,%eax
  8041600cbb:	44 89 c2             	mov    %r8d,%edx
  8041600cbe:	ee                   	out    %al,(%dx)
  __asm __volatile("inb %w1,%0"
  8041600cbf:	ba fd 03 00 00       	mov    $0x3fd,%edx
  8041600cc4:	ec                   	in     (%dx),%al
  8041600cc5:	89 c1                	mov    %eax,%ecx
  serial_exists = (inb(COM1 + COM_LSR) != 0xFF);
  8041600cc7:	3c ff                	cmp    $0xff,%al
  8041600cc9:	0f 95 c0             	setne  %al
  8041600ccc:	a2 ca 44 88 41 80 00 	movabs %al,0x80418844ca
  8041600cd3:	00 00 
  8041600cd5:	89 fa                	mov    %edi,%edx
  8041600cd7:	ec                   	in     (%dx),%al
  8041600cd8:	89 f2                	mov    %esi,%edx
  8041600cda:	ec                   	in     (%dx),%al
void
cons_init(void) {
  kbd_init();
  serial_init();

  if (!serial_exists)
  8041600cdb:	80 f9 ff             	cmp    $0xff,%cl
  8041600cde:	74 01                	je     8041600ce1 <cons_init+0x73>
  8041600ce0:	c3                   	retq   
cons_init(void) {
  8041600ce1:	55                   	push   %rbp
  8041600ce2:	48 89 e5             	mov    %rsp,%rbp
    cprintf("Serial port does not exist!\n");
  8041600ce5:	48 bf 72 cd 60 41 80 	movabs $0x804160cd72,%rdi
  8041600cec:	00 00 00 
  8041600cef:	b8 00 00 00 00       	mov    $0x0,%eax
  8041600cf4:	48 ba 0d 92 60 41 80 	movabs $0x804160920d,%rdx
  8041600cfb:	00 00 00 
  8041600cfe:	ff d2                	callq  *%rdx
}
  8041600d00:	5d                   	pop    %rbp
  8041600d01:	c3                   	retq   

0000008041600d02 <cputchar>:

// `High'-level console I/O.  Used by readline and cprintf.

void
cputchar(int c) {
  8041600d02:	55                   	push   %rbp
  8041600d03:	48 89 e5             	mov    %rsp,%rbp
  cons_putc(c);
  8041600d06:	48 b8 54 08 60 41 80 	movabs $0x8041600854,%rax
  8041600d0d:	00 00 00 
  8041600d10:	ff d0                	callq  *%rax
}
  8041600d12:	5d                   	pop    %rbp
  8041600d13:	c3                   	retq   

0000008041600d14 <getchar>:

int
getchar(void) {
  8041600d14:	55                   	push   %rbp
  8041600d15:	48 89 e5             	mov    %rsp,%rbp
  8041600d18:	53                   	push   %rbx
  8041600d19:	48 83 ec 08          	sub    $0x8,%rsp
  int c;

  while ((c = cons_getc()) == 0)
  8041600d1d:	48 bb 00 0c 60 41 80 	movabs $0x8041600c00,%rbx
  8041600d24:	00 00 00 
  8041600d27:	ff d3                	callq  *%rbx
  8041600d29:	85 c0                	test   %eax,%eax
  8041600d2b:	74 fa                	je     8041600d27 <getchar+0x13>
    /* do nothing */;
  return c;
}
  8041600d2d:	48 83 c4 08          	add    $0x8,%rsp
  8041600d31:	5b                   	pop    %rbx
  8041600d32:	5d                   	pop    %rbp
  8041600d33:	c3                   	retq   

0000008041600d34 <iscons>:

int
iscons(int fdnum) {
  // used by readline
  return 1;
}
  8041600d34:	b8 01 00 00 00       	mov    $0x1,%eax
  8041600d39:	c3                   	retq   

0000008041600d3a <dwarf_read_abbrev_entry>:
}

// Read value from .debug_abbrev table in buf. Returns number of bytes read.
static int
dwarf_read_abbrev_entry(const void *entry, unsigned form, void *buf,
                        int bufsize, unsigned address_size) {
  8041600d3a:	55                   	push   %rbp
  8041600d3b:	48 89 e5             	mov    %rsp,%rbp
  8041600d3e:	41 56                	push   %r14
  8041600d40:	41 55                	push   %r13
  8041600d42:	41 54                	push   %r12
  8041600d44:	53                   	push   %rbx
  8041600d45:	48 83 ec 20          	sub    $0x20,%rsp
  8041600d49:	48 89 7d c8          	mov    %rdi,-0x38(%rbp)
  int bytes = 0;
  switch (form) {
  8041600d4d:	83 fe 20             	cmp    $0x20,%esi
  8041600d50:	0f 87 42 09 00 00    	ja     8041601698 <dwarf_read_abbrev_entry+0x95e>
  8041600d56:	44 89 c3             	mov    %r8d,%ebx
  8041600d59:	41 89 cd             	mov    %ecx,%r13d
  8041600d5c:	49 89 d4             	mov    %rdx,%r12
  8041600d5f:	89 f6                	mov    %esi,%esi
  8041600d61:	48 b8 78 d0 60 41 80 	movabs $0x804160d078,%rax
  8041600d68:	00 00 00 
  8041600d6b:	ff 24 f0             	jmpq   *(%rax,%rsi,8)
    case DW_FORM_addr:
      if (buf && bufsize >= sizeof(uintptr_t)) {
  8041600d6e:	48 85 d2             	test   %rdx,%rdx
  8041600d71:	74 6f                	je     8041600de2 <dwarf_read_abbrev_entry+0xa8>
  8041600d73:	83 f9 07             	cmp    $0x7,%ecx
  8041600d76:	76 6a                	jbe    8041600de2 <dwarf_read_abbrev_entry+0xa8>
        memcpy(buf, entry, sizeof(uintptr_t));
  8041600d78:	ba 08 00 00 00       	mov    $0x8,%edx
  8041600d7d:	48 8b 75 c8          	mov    -0x38(%rbp),%rsi
  8041600d81:	4c 89 e7             	mov    %r12,%rdi
  8041600d84:	48 b8 64 c5 60 41 80 	movabs $0x804160c564,%rax
  8041600d8b:	00 00 00 
  8041600d8e:	ff d0                	callq  *%rax
      }
      entry += address_size;
      bytes = address_size;
      break;
  8041600d90:	eb 50                	jmp    8041600de2 <dwarf_read_abbrev_entry+0xa8>
    case DW_FORM_block2: {
      // Read block of 2-byte length followed by 0 to 65535 contiguous information bytes
      // LAB2 code
        
      unsigned length = get_unaligned(entry, uint16_t);
  8041600d92:	ba 02 00 00 00       	mov    $0x2,%edx
  8041600d97:	48 8b 75 c8          	mov    -0x38(%rbp),%rsi
  8041600d9b:	48 8d 7d d0          	lea    -0x30(%rbp),%rdi
  8041600d9f:	48 b8 64 c5 60 41 80 	movabs $0x804160c564,%rax
  8041600da6:	00 00 00 
  8041600da9:	ff d0                	callq  *%rax
  8041600dab:	0f b7 5d d0          	movzwl -0x30(%rbp),%ebx
      entry += sizeof(uint16_t);
  8041600daf:	48 8b 45 c8          	mov    -0x38(%rbp),%rax
  8041600db3:	48 83 c0 02          	add    $0x2,%rax
  8041600db7:	48 89 45 c8          	mov    %rax,-0x38(%rbp)
      struct Slice slice = {
  8041600dbb:	48 89 45 d0          	mov    %rax,-0x30(%rbp)
  8041600dbf:	89 5d d8             	mov    %ebx,-0x28(%rbp)
        .mem = entry,
        .len = length,
      };
      if (buf) {
  8041600dc2:	4d 85 e4             	test   %r12,%r12
  8041600dc5:	74 18                	je     8041600ddf <dwarf_read_abbrev_entry+0xa5>
        memcpy(buf, &slice, sizeof(struct Slice));
  8041600dc7:	ba 10 00 00 00       	mov    $0x10,%edx
  8041600dcc:	48 8d 75 d0          	lea    -0x30(%rbp),%rsi
  8041600dd0:	4c 89 e7             	mov    %r12,%rdi
  8041600dd3:	48 b8 64 c5 60 41 80 	movabs $0x804160c564,%rax
  8041600dda:	00 00 00 
  8041600ddd:	ff d0                	callq  *%rax
      }
      entry += length;
      bytes = sizeof(uint16_t) + length;
  8041600ddf:	83 c3 02             	add    $0x2,%ebx
      }
      bytes = sizeof(uint64_t);
    } break;
  }
  return bytes;
}
  8041600de2:	89 d8                	mov    %ebx,%eax
  8041600de4:	48 83 c4 20          	add    $0x20,%rsp
  8041600de8:	5b                   	pop    %rbx
  8041600de9:	41 5c                	pop    %r12
  8041600deb:	41 5d                	pop    %r13
  8041600ded:	41 5e                	pop    %r14
  8041600def:	5d                   	pop    %rbp
  8041600df0:	c3                   	retq   
      unsigned length = get_unaligned(entry, uint32_t);
  8041600df1:	ba 04 00 00 00       	mov    $0x4,%edx
  8041600df6:	48 8b 75 c8          	mov    -0x38(%rbp),%rsi
  8041600dfa:	48 8d 7d d0          	lea    -0x30(%rbp),%rdi
  8041600dfe:	48 b8 64 c5 60 41 80 	movabs $0x804160c564,%rax
  8041600e05:	00 00 00 
  8041600e08:	ff d0                	callq  *%rax
  8041600e0a:	8b 5d d0             	mov    -0x30(%rbp),%ebx
      entry += sizeof(uint32_t);
  8041600e0d:	48 8b 45 c8          	mov    -0x38(%rbp),%rax
  8041600e11:	48 83 c0 04          	add    $0x4,%rax
  8041600e15:	48 89 45 c8          	mov    %rax,-0x38(%rbp)
      struct Slice slice = {
  8041600e19:	48 89 45 d0          	mov    %rax,-0x30(%rbp)
  8041600e1d:	89 5d d8             	mov    %ebx,-0x28(%rbp)
      if (buf) {
  8041600e20:	4d 85 e4             	test   %r12,%r12
  8041600e23:	74 18                	je     8041600e3d <dwarf_read_abbrev_entry+0x103>
        memcpy(buf, &slice, sizeof(struct Slice));
  8041600e25:	ba 10 00 00 00       	mov    $0x10,%edx
  8041600e2a:	48 8d 75 d0          	lea    -0x30(%rbp),%rsi
  8041600e2e:	4c 89 e7             	mov    %r12,%rdi
  8041600e31:	48 b8 64 c5 60 41 80 	movabs $0x804160c564,%rax
  8041600e38:	00 00 00 
  8041600e3b:	ff d0                	callq  *%rax
      bytes = sizeof(uint32_t) + length;
  8041600e3d:	83 c3 04             	add    $0x4,%ebx
    } break;
  8041600e40:	eb a0                	jmp    8041600de2 <dwarf_read_abbrev_entry+0xa8>
      Dwarf_Half data = get_unaligned(entry, Dwarf_Half);
  8041600e42:	ba 02 00 00 00       	mov    $0x2,%edx
  8041600e47:	48 8b 75 c8          	mov    -0x38(%rbp),%rsi
  8041600e4b:	48 8d 7d d0          	lea    -0x30(%rbp),%rdi
  8041600e4f:	48 b8 64 c5 60 41 80 	movabs $0x804160c564,%rax
  8041600e56:	00 00 00 
  8041600e59:	ff d0                	callq  *%rax
      entry += sizeof(Dwarf_Half);
  8041600e5b:	48 83 45 c8 02       	addq   $0x2,-0x38(%rbp)
      if (buf && bufsize >= sizeof(Dwarf_Half)) {
  8041600e60:	4d 85 e4             	test   %r12,%r12
  8041600e63:	74 06                	je     8041600e6b <dwarf_read_abbrev_entry+0x131>
  8041600e65:	41 83 fd 01          	cmp    $0x1,%r13d
  8041600e69:	77 0a                	ja     8041600e75 <dwarf_read_abbrev_entry+0x13b>
      bytes = sizeof(Dwarf_Half);
  8041600e6b:	bb 02 00 00 00       	mov    $0x2,%ebx
  8041600e70:	e9 6d ff ff ff       	jmpq   8041600de2 <dwarf_read_abbrev_entry+0xa8>
        put_unaligned(data, (Dwarf_Half *)buf);
  8041600e75:	ba 02 00 00 00       	mov    $0x2,%edx
  8041600e7a:	48 8d 75 d0          	lea    -0x30(%rbp),%rsi
  8041600e7e:	4c 89 e7             	mov    %r12,%rdi
  8041600e81:	48 b8 64 c5 60 41 80 	movabs $0x804160c564,%rax
  8041600e88:	00 00 00 
  8041600e8b:	ff d0                	callq  *%rax
      bytes = sizeof(Dwarf_Half);
  8041600e8d:	bb 02 00 00 00       	mov    $0x2,%ebx
        put_unaligned(data, (Dwarf_Half *)buf);
  8041600e92:	e9 4b ff ff ff       	jmpq   8041600de2 <dwarf_read_abbrev_entry+0xa8>
      uint32_t data = get_unaligned(entry, uint32_t);
  8041600e97:	ba 04 00 00 00       	mov    $0x4,%edx
  8041600e9c:	48 8b 75 c8          	mov    -0x38(%rbp),%rsi
  8041600ea0:	48 8d 7d d0          	lea    -0x30(%rbp),%rdi
  8041600ea4:	48 b8 64 c5 60 41 80 	movabs $0x804160c564,%rax
  8041600eab:	00 00 00 
  8041600eae:	ff d0                	callq  *%rax
      entry += sizeof(uint32_t);
  8041600eb0:	48 83 45 c8 04       	addq   $0x4,-0x38(%rbp)
      if (buf && bufsize >= sizeof(uint32_t)) {
  8041600eb5:	4d 85 e4             	test   %r12,%r12
  8041600eb8:	74 06                	je     8041600ec0 <dwarf_read_abbrev_entry+0x186>
  8041600eba:	41 83 fd 03          	cmp    $0x3,%r13d
  8041600ebe:	77 0a                	ja     8041600eca <dwarf_read_abbrev_entry+0x190>
      bytes = sizeof(uint32_t);
  8041600ec0:	bb 04 00 00 00       	mov    $0x4,%ebx
  8041600ec5:	e9 18 ff ff ff       	jmpq   8041600de2 <dwarf_read_abbrev_entry+0xa8>
        put_unaligned(data, (uint32_t *)buf);
  8041600eca:	ba 04 00 00 00       	mov    $0x4,%edx
  8041600ecf:	48 8d 75 d0          	lea    -0x30(%rbp),%rsi
  8041600ed3:	4c 89 e7             	mov    %r12,%rdi
  8041600ed6:	48 b8 64 c5 60 41 80 	movabs $0x804160c564,%rax
  8041600edd:	00 00 00 
  8041600ee0:	ff d0                	callq  *%rax
      bytes = sizeof(uint32_t);
  8041600ee2:	bb 04 00 00 00       	mov    $0x4,%ebx
        put_unaligned(data, (uint32_t *)buf);
  8041600ee7:	e9 f6 fe ff ff       	jmpq   8041600de2 <dwarf_read_abbrev_entry+0xa8>
      uint64_t data = get_unaligned(entry, uint64_t);
  8041600eec:	ba 08 00 00 00       	mov    $0x8,%edx
  8041600ef1:	48 8b 75 c8          	mov    -0x38(%rbp),%rsi
  8041600ef5:	48 8d 7d d0          	lea    -0x30(%rbp),%rdi
  8041600ef9:	48 b8 64 c5 60 41 80 	movabs $0x804160c564,%rax
  8041600f00:	00 00 00 
  8041600f03:	ff d0                	callq  *%rax
      entry += sizeof(uint64_t);
  8041600f05:	48 83 45 c8 08       	addq   $0x8,-0x38(%rbp)
      if (buf && bufsize >= sizeof(uint64_t)) {
  8041600f0a:	4d 85 e4             	test   %r12,%r12
  8041600f0d:	74 06                	je     8041600f15 <dwarf_read_abbrev_entry+0x1db>
  8041600f0f:	41 83 fd 07          	cmp    $0x7,%r13d
  8041600f13:	77 0a                	ja     8041600f1f <dwarf_read_abbrev_entry+0x1e5>
      bytes = sizeof(uint64_t);
  8041600f15:	bb 08 00 00 00       	mov    $0x8,%ebx
  8041600f1a:	e9 c3 fe ff ff       	jmpq   8041600de2 <dwarf_read_abbrev_entry+0xa8>
        put_unaligned(data, (uint64_t *)buf);
  8041600f1f:	ba 08 00 00 00       	mov    $0x8,%edx
  8041600f24:	48 8d 75 d0          	lea    -0x30(%rbp),%rsi
  8041600f28:	4c 89 e7             	mov    %r12,%rdi
  8041600f2b:	48 b8 64 c5 60 41 80 	movabs $0x804160c564,%rax
  8041600f32:	00 00 00 
  8041600f35:	ff d0                	callq  *%rax
      bytes = sizeof(uint64_t);
  8041600f37:	bb 08 00 00 00       	mov    $0x8,%ebx
        put_unaligned(data, (uint64_t *)buf);
  8041600f3c:	e9 a1 fe ff ff       	jmpq   8041600de2 <dwarf_read_abbrev_entry+0xa8>
      if (buf && bufsize >= sizeof(char *)) {
  8041600f41:	48 85 d2             	test   %rdx,%rdx
  8041600f44:	74 05                	je     8041600f4b <dwarf_read_abbrev_entry+0x211>
  8041600f46:	83 f9 07             	cmp    $0x7,%ecx
  8041600f49:	77 18                	ja     8041600f63 <dwarf_read_abbrev_entry+0x229>
      bytes = strlen(entry) + 1;
  8041600f4b:	48 8b 7d c8          	mov    -0x38(%rbp),%rdi
  8041600f4f:	48 b8 eb c2 60 41 80 	movabs $0x804160c2eb,%rax
  8041600f56:	00 00 00 
  8041600f59:	ff d0                	callq  *%rax
  8041600f5b:	8d 58 01             	lea    0x1(%rax),%ebx
    } break;
  8041600f5e:	e9 7f fe ff ff       	jmpq   8041600de2 <dwarf_read_abbrev_entry+0xa8>
        memcpy(buf, &entry, sizeof(char *));
  8041600f63:	ba 08 00 00 00       	mov    $0x8,%edx
  8041600f68:	48 8d 75 c8          	lea    -0x38(%rbp),%rsi
  8041600f6c:	4c 89 e7             	mov    %r12,%rdi
  8041600f6f:	48 b8 64 c5 60 41 80 	movabs $0x804160c564,%rax
  8041600f76:	00 00 00 
  8041600f79:	ff d0                	callq  *%rax
  8041600f7b:	eb ce                	jmp    8041600f4b <dwarf_read_abbrev_entry+0x211>
      unsigned long count = dwarf_read_uleb128(entry, &length);
  8041600f7d:	4c 8b 45 c8          	mov    -0x38(%rbp),%r8
  8041600f81:	4c 89 c2             	mov    %r8,%rdx
  unsigned char byte;
  int shift, count;

  result = 0;
  shift  = 0;
  count  = 0;
  8041600f84:	bf 00 00 00 00       	mov    $0x0,%edi
  shift  = 0;
  8041600f89:	b9 00 00 00 00       	mov    $0x0,%ecx
  result = 0;
  8041600f8e:	bb 00 00 00 00       	mov    $0x0,%ebx

  while (1) {
    byte = *addr;
  8041600f93:	0f b6 32             	movzbl (%rdx),%esi
    addr++;
  8041600f96:	48 83 c2 01          	add    $0x1,%rdx
    count++;
  8041600f9a:	83 c7 01             	add    $0x1,%edi

    result |= (byte & 0x7f) << shift;
  8041600f9d:	89 f0                	mov    %esi,%eax
  8041600f9f:	83 e0 7f             	and    $0x7f,%eax
  8041600fa2:	d3 e0                	shl    %cl,%eax
  8041600fa4:	09 c3                	or     %eax,%ebx
    shift += 7;
  8041600fa6:	83 c1 07             	add    $0x7,%ecx

    if (!(byte & 0x80))
  8041600fa9:	40 84 f6             	test   %sil,%sil
  8041600fac:	78 e5                	js     8041600f93 <dwarf_read_abbrev_entry+0x259>
      break;
  }

  *ret = result;

  return count;
  8041600fae:	4c 63 ef             	movslq %edi,%r13
      entry += count;
  8041600fb1:	4d 01 e8             	add    %r13,%r8
  8041600fb4:	4c 89 45 c8          	mov    %r8,-0x38(%rbp)
      struct Slice slice = {
  8041600fb8:	4c 89 45 d0          	mov    %r8,-0x30(%rbp)
  8041600fbc:	89 5d d8             	mov    %ebx,-0x28(%rbp)
      if (buf) {
  8041600fbf:	4d 85 e4             	test   %r12,%r12
  8041600fc2:	74 18                	je     8041600fdc <dwarf_read_abbrev_entry+0x2a2>
        memcpy(buf, &slice, sizeof(struct Slice));
  8041600fc4:	ba 10 00 00 00       	mov    $0x10,%edx
  8041600fc9:	48 8d 75 d0          	lea    -0x30(%rbp),%rsi
  8041600fcd:	4c 89 e7             	mov    %r12,%rdi
  8041600fd0:	48 b8 64 c5 60 41 80 	movabs $0x804160c564,%rax
  8041600fd7:	00 00 00 
  8041600fda:	ff d0                	callq  *%rax
      bytes = count + length;
  8041600fdc:	44 01 eb             	add    %r13d,%ebx
    } break;
  8041600fdf:	e9 fe fd ff ff       	jmpq   8041600de2 <dwarf_read_abbrev_entry+0xa8>
      unsigned length = get_unaligned(entry, Dwarf_Small);
  8041600fe4:	ba 01 00 00 00       	mov    $0x1,%edx
  8041600fe9:	48 8b 75 c8          	mov    -0x38(%rbp),%rsi
  8041600fed:	48 8d 7d d0          	lea    -0x30(%rbp),%rdi
  8041600ff1:	48 b8 64 c5 60 41 80 	movabs $0x804160c564,%rax
  8041600ff8:	00 00 00 
  8041600ffb:	ff d0                	callq  *%rax
  8041600ffd:	0f b6 5d d0          	movzbl -0x30(%rbp),%ebx
      entry += sizeof(Dwarf_Small);
  8041601001:	48 8b 45 c8          	mov    -0x38(%rbp),%rax
  8041601005:	48 83 c0 01          	add    $0x1,%rax
  8041601009:	48 89 45 c8          	mov    %rax,-0x38(%rbp)
      struct Slice slice = {
  804160100d:	48 89 45 d0          	mov    %rax,-0x30(%rbp)
  8041601011:	89 5d d8             	mov    %ebx,-0x28(%rbp)
      if (buf) {
  8041601014:	4d 85 e4             	test   %r12,%r12
  8041601017:	74 18                	je     8041601031 <dwarf_read_abbrev_entry+0x2f7>
        memcpy(buf, &slice, sizeof(struct Slice));
  8041601019:	ba 10 00 00 00       	mov    $0x10,%edx
  804160101e:	48 8d 75 d0          	lea    -0x30(%rbp),%rsi
  8041601022:	4c 89 e7             	mov    %r12,%rdi
  8041601025:	48 b8 64 c5 60 41 80 	movabs $0x804160c564,%rax
  804160102c:	00 00 00 
  804160102f:	ff d0                	callq  *%rax
      bytes = length + sizeof(Dwarf_Small);
  8041601031:	83 c3 01             	add    $0x1,%ebx
    } break;
  8041601034:	e9 a9 fd ff ff       	jmpq   8041600de2 <dwarf_read_abbrev_entry+0xa8>
      Dwarf_Small data = get_unaligned(entry, Dwarf_Small);
  8041601039:	ba 01 00 00 00       	mov    $0x1,%edx
  804160103e:	48 8b 75 c8          	mov    -0x38(%rbp),%rsi
  8041601042:	48 8d 7d d0          	lea    -0x30(%rbp),%rdi
  8041601046:	48 b8 64 c5 60 41 80 	movabs $0x804160c564,%rax
  804160104d:	00 00 00 
  8041601050:	ff d0                	callq  *%rax
  8041601052:	0f b6 45 d0          	movzbl -0x30(%rbp),%eax
      if (buf && bufsize >= sizeof(Dwarf_Small)) {
  8041601056:	4d 85 e4             	test   %r12,%r12
  8041601059:	0f 84 43 06 00 00    	je     80416016a2 <dwarf_read_abbrev_entry+0x968>
  804160105f:	45 85 ed             	test   %r13d,%r13d
  8041601062:	0f 84 3a 06 00 00    	je     80416016a2 <dwarf_read_abbrev_entry+0x968>
        put_unaligned(data, (Dwarf_Small *)buf);
  8041601068:	41 88 04 24          	mov    %al,(%r12)
      bytes = sizeof(Dwarf_Small);
  804160106c:	bb 01 00 00 00       	mov    $0x1,%ebx
        put_unaligned(data, (Dwarf_Small *)buf);
  8041601071:	e9 6c fd ff ff       	jmpq   8041600de2 <dwarf_read_abbrev_entry+0xa8>
      bool data = get_unaligned(entry, Dwarf_Small);
  8041601076:	ba 01 00 00 00       	mov    $0x1,%edx
  804160107b:	48 8b 75 c8          	mov    -0x38(%rbp),%rsi
  804160107f:	48 8d 7d d0          	lea    -0x30(%rbp),%rdi
  8041601083:	48 b8 64 c5 60 41 80 	movabs $0x804160c564,%rax
  804160108a:	00 00 00 
  804160108d:	ff d0                	callq  *%rax
  804160108f:	0f b6 45 d0          	movzbl -0x30(%rbp),%eax
      if (buf && bufsize >= sizeof(bool)) {
  8041601093:	4d 85 e4             	test   %r12,%r12
  8041601096:	0f 84 10 06 00 00    	je     80416016ac <dwarf_read_abbrev_entry+0x972>
  804160109c:	45 85 ed             	test   %r13d,%r13d
  804160109f:	0f 84 07 06 00 00    	je     80416016ac <dwarf_read_abbrev_entry+0x972>
      bool data = get_unaligned(entry, Dwarf_Small);
  80416010a5:	84 c0                	test   %al,%al
        put_unaligned(data, (bool *)buf);
  80416010a7:	41 0f 95 04 24       	setne  (%r12)
      bytes = sizeof(Dwarf_Small);
  80416010ac:	bb 01 00 00 00       	mov    $0x1,%ebx
        put_unaligned(data, (bool *)buf);
  80416010b1:	e9 2c fd ff ff       	jmpq   8041600de2 <dwarf_read_abbrev_entry+0xa8>
      int count = dwarf_read_leb128(entry, &data);
  80416010b6:	4c 8b 45 c8          	mov    -0x38(%rbp),%r8
  80416010ba:	4c 89 c2             	mov    %r8,%rdx
  int num_bits;
  int count;

  result = 0;
  shift  = 0;
  count  = 0;
  80416010bd:	bb 00 00 00 00       	mov    $0x0,%ebx
  shift  = 0;
  80416010c2:	b9 00 00 00 00       	mov    $0x0,%ecx
  result = 0;
  80416010c7:	bf 00 00 00 00       	mov    $0x0,%edi

  while (1) {
    byte = *addr;
  80416010cc:	0f b6 32             	movzbl (%rdx),%esi
    addr++;
  80416010cf:	48 83 c2 01          	add    $0x1,%rdx
    result |= (byte & 0x7f) << shift;
  80416010d3:	89 f0                	mov    %esi,%eax
  80416010d5:	83 e0 7f             	and    $0x7f,%eax
  80416010d8:	d3 e0                	shl    %cl,%eax
  80416010da:	09 c7                	or     %eax,%edi
    shift += 7;
  80416010dc:	83 c1 07             	add    $0x7,%ecx
    count++;
  80416010df:	83 c3 01             	add    $0x1,%ebx

    if (!(byte & 0x80))
  80416010e2:	40 84 f6             	test   %sil,%sil
  80416010e5:	78 e5                	js     80416010cc <dwarf_read_abbrev_entry+0x392>
  }

  /* The number of bits in a signed integer. */
  num_bits = 8 * sizeof(result);

  if ((shift < num_bits) && (byte & 0x40))
  80416010e7:	83 f9 1f             	cmp    $0x1f,%ecx
  80416010ea:	7f 0f                	jg     80416010fb <dwarf_read_abbrev_entry+0x3c1>
  80416010ec:	40 f6 c6 40          	test   $0x40,%sil
  80416010f0:	74 09                	je     80416010fb <dwarf_read_abbrev_entry+0x3c1>
    result |= (-1U << shift);
  80416010f2:	b8 ff ff ff ff       	mov    $0xffffffff,%eax
  80416010f7:	d3 e0                	shl    %cl,%eax
  80416010f9:	09 c7                	or     %eax,%edi

  *ret = result;

  return count;
  80416010fb:	48 63 c3             	movslq %ebx,%rax
      entry += count;
  80416010fe:	49 01 c0             	add    %rax,%r8
  8041601101:	4c 89 45 c8          	mov    %r8,-0x38(%rbp)
      if (buf && bufsize >= sizeof(int)) {
  8041601105:	4d 85 e4             	test   %r12,%r12
  8041601108:	0f 84 d4 fc ff ff    	je     8041600de2 <dwarf_read_abbrev_entry+0xa8>
  804160110e:	41 83 fd 03          	cmp    $0x3,%r13d
  8041601112:	0f 86 ca fc ff ff    	jbe    8041600de2 <dwarf_read_abbrev_entry+0xa8>
        put_unaligned(data, (int *)buf);
  8041601118:	89 7d d0             	mov    %edi,-0x30(%rbp)
  804160111b:	ba 04 00 00 00       	mov    $0x4,%edx
  8041601120:	48 8d 75 d0          	lea    -0x30(%rbp),%rsi
  8041601124:	4c 89 e7             	mov    %r12,%rdi
  8041601127:	48 b8 64 c5 60 41 80 	movabs $0x804160c564,%rax
  804160112e:	00 00 00 
  8041601131:	ff d0                	callq  *%rax
  8041601133:	e9 aa fc ff ff       	jmpq   8041600de2 <dwarf_read_abbrev_entry+0xa8>
      int count            = dwarf_entry_len(entry, &length);
  8041601138:	4c 8b 75 c8          	mov    -0x38(%rbp),%r14
  initial_len = get_unaligned(addr, uint32_t);
  804160113c:	ba 04 00 00 00       	mov    $0x4,%edx
  8041601141:	4c 89 f6             	mov    %r14,%rsi
  8041601144:	48 8d 7d d0          	lea    -0x30(%rbp),%rdi
  8041601148:	48 b8 64 c5 60 41 80 	movabs $0x804160c564,%rax
  804160114f:	00 00 00 
  8041601152:	ff d0                	callq  *%rax
  8041601154:	8b 45 d0             	mov    -0x30(%rbp),%eax
    *len = initial_len;
  8041601157:	89 c2                	mov    %eax,%edx
  count       = 4;
  8041601159:	bb 04 00 00 00       	mov    $0x4,%ebx
  if (initial_len >= DW_EXT_LO && initial_len <= DW_EXT_HI) {
  804160115e:	83 f8 ef             	cmp    $0xffffffef,%eax
  8041601161:	76 2a                	jbe    804160118d <dwarf_read_abbrev_entry+0x453>
    if (initial_len == DW_EXT_DWARF64) {
  8041601163:	83 f8 ff             	cmp    $0xffffffff,%eax
  8041601166:	74 60                	je     80416011c8 <dwarf_read_abbrev_entry+0x48e>
      cprintf("Unknown DWARF extension\n");
  8041601168:	48 bf c0 cf 60 41 80 	movabs $0x804160cfc0,%rdi
  804160116f:	00 00 00 
  8041601172:	b8 00 00 00 00       	mov    $0x0,%eax
  8041601177:	48 ba 0d 92 60 41 80 	movabs $0x804160920d,%rdx
  804160117e:	00 00 00 
  8041601181:	ff d2                	callq  *%rdx
      unsigned long length = 0;
  8041601183:	ba 00 00 00 00       	mov    $0x0,%edx
      count = 0;
  8041601188:	bb 00 00 00 00       	mov    $0x0,%ebx
      entry += count;
  804160118d:	48 63 c3             	movslq %ebx,%rax
  8041601190:	48 01 45 c8          	add    %rax,-0x38(%rbp)
      if (buf && bufsize >= sizeof(unsigned long)) {
  8041601194:	4d 85 e4             	test   %r12,%r12
  8041601197:	0f 84 45 fc ff ff    	je     8041600de2 <dwarf_read_abbrev_entry+0xa8>
  804160119d:	41 83 fd 07          	cmp    $0x7,%r13d
  80416011a1:	0f 86 3b fc ff ff    	jbe    8041600de2 <dwarf_read_abbrev_entry+0xa8>
        put_unaligned(length, (unsigned long *)buf);
  80416011a7:	48 89 55 d0          	mov    %rdx,-0x30(%rbp)
  80416011ab:	ba 08 00 00 00       	mov    $0x8,%edx
  80416011b0:	48 8d 75 d0          	lea    -0x30(%rbp),%rsi
  80416011b4:	4c 89 e7             	mov    %r12,%rdi
  80416011b7:	48 b8 64 c5 60 41 80 	movabs $0x804160c564,%rax
  80416011be:	00 00 00 
  80416011c1:	ff d0                	callq  *%rax
  80416011c3:	e9 1a fc ff ff       	jmpq   8041600de2 <dwarf_read_abbrev_entry+0xa8>
      *len  = get_unaligned((uint64_t *)addr + 4, uint64_t);
  80416011c8:	49 8d 76 20          	lea    0x20(%r14),%rsi
  80416011cc:	ba 08 00 00 00       	mov    $0x8,%edx
  80416011d1:	48 8d 7d d0          	lea    -0x30(%rbp),%rdi
  80416011d5:	48 b8 64 c5 60 41 80 	movabs $0x804160c564,%rax
  80416011dc:	00 00 00 
  80416011df:	ff d0                	callq  *%rax
  80416011e1:	48 8b 55 d0          	mov    -0x30(%rbp),%rdx
      count = 12;
  80416011e5:	bb 0c 00 00 00       	mov    $0xc,%ebx
  80416011ea:	eb a1                	jmp    804160118d <dwarf_read_abbrev_entry+0x453>
      int count         = dwarf_read_uleb128(entry, &data);
  80416011ec:	4c 8b 45 c8          	mov    -0x38(%rbp),%r8
  80416011f0:	4c 89 c2             	mov    %r8,%rdx
  count  = 0;
  80416011f3:	bb 00 00 00 00       	mov    $0x0,%ebx
  shift  = 0;
  80416011f8:	b9 00 00 00 00       	mov    $0x0,%ecx
  result = 0;
  80416011fd:	bf 00 00 00 00       	mov    $0x0,%edi
    byte = *addr;
  8041601202:	0f b6 32             	movzbl (%rdx),%esi
    addr++;
  8041601205:	48 83 c2 01          	add    $0x1,%rdx
    count++;
  8041601209:	83 c3 01             	add    $0x1,%ebx
    result |= (byte & 0x7f) << shift;
  804160120c:	89 f0                	mov    %esi,%eax
  804160120e:	83 e0 7f             	and    $0x7f,%eax
  8041601211:	d3 e0                	shl    %cl,%eax
  8041601213:	09 c7                	or     %eax,%edi
    shift += 7;
  8041601215:	83 c1 07             	add    $0x7,%ecx
    if (!(byte & 0x80))
  8041601218:	40 84 f6             	test   %sil,%sil
  804160121b:	78 e5                	js     8041601202 <dwarf_read_abbrev_entry+0x4c8>
  return count;
  804160121d:	48 63 c3             	movslq %ebx,%rax
      entry += count;
  8041601220:	49 01 c0             	add    %rax,%r8
  8041601223:	4c 89 45 c8          	mov    %r8,-0x38(%rbp)
      if (buf && bufsize >= sizeof(unsigned int)) {
  8041601227:	4d 85 e4             	test   %r12,%r12
  804160122a:	0f 84 b2 fb ff ff    	je     8041600de2 <dwarf_read_abbrev_entry+0xa8>
  8041601230:	41 83 fd 03          	cmp    $0x3,%r13d
  8041601234:	0f 86 a8 fb ff ff    	jbe    8041600de2 <dwarf_read_abbrev_entry+0xa8>
        put_unaligned(data, (unsigned int *)buf);
  804160123a:	89 7d d0             	mov    %edi,-0x30(%rbp)
  804160123d:	ba 04 00 00 00       	mov    $0x4,%edx
  8041601242:	48 8d 75 d0          	lea    -0x30(%rbp),%rsi
  8041601246:	4c 89 e7             	mov    %r12,%rdi
  8041601249:	48 b8 64 c5 60 41 80 	movabs $0x804160c564,%rax
  8041601250:	00 00 00 
  8041601253:	ff d0                	callq  *%rax
  8041601255:	e9 88 fb ff ff       	jmpq   8041600de2 <dwarf_read_abbrev_entry+0xa8>
      int count            = dwarf_entry_len(entry, &length);
  804160125a:	4c 8b 75 c8          	mov    -0x38(%rbp),%r14
  initial_len = get_unaligned(addr, uint32_t);
  804160125e:	ba 04 00 00 00       	mov    $0x4,%edx
  8041601263:	4c 89 f6             	mov    %r14,%rsi
  8041601266:	48 8d 7d d0          	lea    -0x30(%rbp),%rdi
  804160126a:	48 b8 64 c5 60 41 80 	movabs $0x804160c564,%rax
  8041601271:	00 00 00 
  8041601274:	ff d0                	callq  *%rax
  8041601276:	8b 45 d0             	mov    -0x30(%rbp),%eax
    *len = initial_len;
  8041601279:	89 c2                	mov    %eax,%edx
  count       = 4;
  804160127b:	bb 04 00 00 00       	mov    $0x4,%ebx
  if (initial_len >= DW_EXT_LO && initial_len <= DW_EXT_HI) {
  8041601280:	83 f8 ef             	cmp    $0xffffffef,%eax
  8041601283:	76 2a                	jbe    80416012af <dwarf_read_abbrev_entry+0x575>
    if (initial_len == DW_EXT_DWARF64) {
  8041601285:	83 f8 ff             	cmp    $0xffffffff,%eax
  8041601288:	74 60                	je     80416012ea <dwarf_read_abbrev_entry+0x5b0>
      cprintf("Unknown DWARF extension\n");
  804160128a:	48 bf c0 cf 60 41 80 	movabs $0x804160cfc0,%rdi
  8041601291:	00 00 00 
  8041601294:	b8 00 00 00 00       	mov    $0x0,%eax
  8041601299:	48 ba 0d 92 60 41 80 	movabs $0x804160920d,%rdx
  80416012a0:	00 00 00 
  80416012a3:	ff d2                	callq  *%rdx
      unsigned long length = 0;
  80416012a5:	ba 00 00 00 00       	mov    $0x0,%edx
      count = 0;
  80416012aa:	bb 00 00 00 00       	mov    $0x0,%ebx
      entry += count;
  80416012af:	48 63 c3             	movslq %ebx,%rax
  80416012b2:	48 01 45 c8          	add    %rax,-0x38(%rbp)
      if (buf && bufsize >= sizeof(unsigned long)) {
  80416012b6:	4d 85 e4             	test   %r12,%r12
  80416012b9:	0f 84 23 fb ff ff    	je     8041600de2 <dwarf_read_abbrev_entry+0xa8>
  80416012bf:	41 83 fd 07          	cmp    $0x7,%r13d
  80416012c3:	0f 86 19 fb ff ff    	jbe    8041600de2 <dwarf_read_abbrev_entry+0xa8>
        put_unaligned(length, (unsigned long *)buf);
  80416012c9:	48 89 55 d0          	mov    %rdx,-0x30(%rbp)
  80416012cd:	ba 08 00 00 00       	mov    $0x8,%edx
  80416012d2:	48 8d 75 d0          	lea    -0x30(%rbp),%rsi
  80416012d6:	4c 89 e7             	mov    %r12,%rdi
  80416012d9:	48 b8 64 c5 60 41 80 	movabs $0x804160c564,%rax
  80416012e0:	00 00 00 
  80416012e3:	ff d0                	callq  *%rax
  80416012e5:	e9 f8 fa ff ff       	jmpq   8041600de2 <dwarf_read_abbrev_entry+0xa8>
      *len  = get_unaligned((uint64_t *)addr + 4, uint64_t);
  80416012ea:	49 8d 76 20          	lea    0x20(%r14),%rsi
  80416012ee:	ba 08 00 00 00       	mov    $0x8,%edx
  80416012f3:	48 8d 7d d0          	lea    -0x30(%rbp),%rdi
  80416012f7:	48 b8 64 c5 60 41 80 	movabs $0x804160c564,%rax
  80416012fe:	00 00 00 
  8041601301:	ff d0                	callq  *%rax
  8041601303:	48 8b 55 d0          	mov    -0x30(%rbp),%rdx
      count = 12;
  8041601307:	bb 0c 00 00 00       	mov    $0xc,%ebx
  804160130c:	eb a1                	jmp    80416012af <dwarf_read_abbrev_entry+0x575>
      Dwarf_Small data = get_unaligned(entry, Dwarf_Small);
  804160130e:	ba 01 00 00 00       	mov    $0x1,%edx
  8041601313:	48 8b 75 c8          	mov    -0x38(%rbp),%rsi
  8041601317:	48 8d 7d d0          	lea    -0x30(%rbp),%rdi
  804160131b:	48 b8 64 c5 60 41 80 	movabs $0x804160c564,%rax
  8041601322:	00 00 00 
  8041601325:	ff d0                	callq  *%rax
  8041601327:	0f b6 45 d0          	movzbl -0x30(%rbp),%eax
      if (buf && bufsize >= sizeof(Dwarf_Small)) {
  804160132b:	4d 85 e4             	test   %r12,%r12
  804160132e:	0f 84 82 03 00 00    	je     80416016b6 <dwarf_read_abbrev_entry+0x97c>
  8041601334:	45 85 ed             	test   %r13d,%r13d
  8041601337:	0f 84 79 03 00 00    	je     80416016b6 <dwarf_read_abbrev_entry+0x97c>
        put_unaligned(data, (Dwarf_Small *)buf);
  804160133d:	41 88 04 24          	mov    %al,(%r12)
      bytes = sizeof(Dwarf_Small);
  8041601341:	bb 01 00 00 00       	mov    $0x1,%ebx
        put_unaligned(data, (Dwarf_Small *)buf);
  8041601346:	e9 97 fa ff ff       	jmpq   8041600de2 <dwarf_read_abbrev_entry+0xa8>
      Dwarf_Half data = get_unaligned(entry, Dwarf_Half);
  804160134b:	ba 02 00 00 00       	mov    $0x2,%edx
  8041601350:	48 8b 75 c8          	mov    -0x38(%rbp),%rsi
  8041601354:	48 8d 7d d0          	lea    -0x30(%rbp),%rdi
  8041601358:	48 b8 64 c5 60 41 80 	movabs $0x804160c564,%rax
  804160135f:	00 00 00 
  8041601362:	ff d0                	callq  *%rax
      entry += sizeof(Dwarf_Half);
  8041601364:	48 83 45 c8 02       	addq   $0x2,-0x38(%rbp)
      if (buf && bufsize >= sizeof(Dwarf_Half)) {
  8041601369:	4d 85 e4             	test   %r12,%r12
  804160136c:	74 06                	je     8041601374 <dwarf_read_abbrev_entry+0x63a>
  804160136e:	41 83 fd 01          	cmp    $0x1,%r13d
  8041601372:	77 0a                	ja     804160137e <dwarf_read_abbrev_entry+0x644>
      bytes = sizeof(Dwarf_Half);
  8041601374:	bb 02 00 00 00       	mov    $0x2,%ebx
  8041601379:	e9 64 fa ff ff       	jmpq   8041600de2 <dwarf_read_abbrev_entry+0xa8>
        put_unaligned(data, (Dwarf_Half *)buf);
  804160137e:	ba 02 00 00 00       	mov    $0x2,%edx
  8041601383:	48 8d 75 d0          	lea    -0x30(%rbp),%rsi
  8041601387:	4c 89 e7             	mov    %r12,%rdi
  804160138a:	48 b8 64 c5 60 41 80 	movabs $0x804160c564,%rax
  8041601391:	00 00 00 
  8041601394:	ff d0                	callq  *%rax
      bytes = sizeof(Dwarf_Half);
  8041601396:	bb 02 00 00 00       	mov    $0x2,%ebx
        put_unaligned(data, (Dwarf_Half *)buf);
  804160139b:	e9 42 fa ff ff       	jmpq   8041600de2 <dwarf_read_abbrev_entry+0xa8>
      uint32_t data = get_unaligned(entry, uint32_t);
  80416013a0:	ba 04 00 00 00       	mov    $0x4,%edx
  80416013a5:	48 8b 75 c8          	mov    -0x38(%rbp),%rsi
  80416013a9:	48 8d 7d d0          	lea    -0x30(%rbp),%rdi
  80416013ad:	48 b8 64 c5 60 41 80 	movabs $0x804160c564,%rax
  80416013b4:	00 00 00 
  80416013b7:	ff d0                	callq  *%rax
      entry += sizeof(uint32_t);
  80416013b9:	48 83 45 c8 04       	addq   $0x4,-0x38(%rbp)
      if (buf && bufsize >= sizeof(uint32_t)) {
  80416013be:	4d 85 e4             	test   %r12,%r12
  80416013c1:	74 06                	je     80416013c9 <dwarf_read_abbrev_entry+0x68f>
  80416013c3:	41 83 fd 03          	cmp    $0x3,%r13d
  80416013c7:	77 0a                	ja     80416013d3 <dwarf_read_abbrev_entry+0x699>
      bytes = sizeof(uint32_t);
  80416013c9:	bb 04 00 00 00       	mov    $0x4,%ebx
  80416013ce:	e9 0f fa ff ff       	jmpq   8041600de2 <dwarf_read_abbrev_entry+0xa8>
        put_unaligned(data, (uint32_t *)buf);
  80416013d3:	ba 04 00 00 00       	mov    $0x4,%edx
  80416013d8:	48 8d 75 d0          	lea    -0x30(%rbp),%rsi
  80416013dc:	4c 89 e7             	mov    %r12,%rdi
  80416013df:	48 b8 64 c5 60 41 80 	movabs $0x804160c564,%rax
  80416013e6:	00 00 00 
  80416013e9:	ff d0                	callq  *%rax
      bytes = sizeof(uint32_t);
  80416013eb:	bb 04 00 00 00       	mov    $0x4,%ebx
        put_unaligned(data, (uint32_t *)buf);
  80416013f0:	e9 ed f9 ff ff       	jmpq   8041600de2 <dwarf_read_abbrev_entry+0xa8>
      uint64_t data = get_unaligned(entry, uint64_t);
  80416013f5:	ba 08 00 00 00       	mov    $0x8,%edx
  80416013fa:	48 8b 75 c8          	mov    -0x38(%rbp),%rsi
  80416013fe:	48 8d 7d d0          	lea    -0x30(%rbp),%rdi
  8041601402:	48 b8 64 c5 60 41 80 	movabs $0x804160c564,%rax
  8041601409:	00 00 00 
  804160140c:	ff d0                	callq  *%rax
      entry += sizeof(uint64_t);
  804160140e:	48 83 45 c8 08       	addq   $0x8,-0x38(%rbp)
      if (buf && bufsize >= sizeof(uint64_t)) {
  8041601413:	4d 85 e4             	test   %r12,%r12
  8041601416:	74 06                	je     804160141e <dwarf_read_abbrev_entry+0x6e4>
  8041601418:	41 83 fd 07          	cmp    $0x7,%r13d
  804160141c:	77 0a                	ja     8041601428 <dwarf_read_abbrev_entry+0x6ee>
      bytes = sizeof(uint64_t);
  804160141e:	bb 08 00 00 00       	mov    $0x8,%ebx
  8041601423:	e9 ba f9 ff ff       	jmpq   8041600de2 <dwarf_read_abbrev_entry+0xa8>
        put_unaligned(data, (uint64_t *)buf);
  8041601428:	ba 08 00 00 00       	mov    $0x8,%edx
  804160142d:	48 8d 75 d0          	lea    -0x30(%rbp),%rsi
  8041601431:	4c 89 e7             	mov    %r12,%rdi
  8041601434:	48 b8 64 c5 60 41 80 	movabs $0x804160c564,%rax
  804160143b:	00 00 00 
  804160143e:	ff d0                	callq  *%rax
      bytes = sizeof(uint64_t);
  8041601440:	bb 08 00 00 00       	mov    $0x8,%ebx
        put_unaligned(data, (uint64_t *)buf);
  8041601445:	e9 98 f9 ff ff       	jmpq   8041600de2 <dwarf_read_abbrev_entry+0xa8>
      int count         = dwarf_read_uleb128(entry, &data);
  804160144a:	4c 8b 45 c8          	mov    -0x38(%rbp),%r8
  804160144e:	4c 89 c2             	mov    %r8,%rdx
  count  = 0;
  8041601451:	bb 00 00 00 00       	mov    $0x0,%ebx
  shift  = 0;
  8041601456:	b9 00 00 00 00       	mov    $0x0,%ecx
  result = 0;
  804160145b:	bf 00 00 00 00       	mov    $0x0,%edi
    byte = *addr;
  8041601460:	0f b6 32             	movzbl (%rdx),%esi
    addr++;
  8041601463:	48 83 c2 01          	add    $0x1,%rdx
    count++;
  8041601467:	83 c3 01             	add    $0x1,%ebx
    result |= (byte & 0x7f) << shift;
  804160146a:	89 f0                	mov    %esi,%eax
  804160146c:	83 e0 7f             	and    $0x7f,%eax
  804160146f:	d3 e0                	shl    %cl,%eax
  8041601471:	09 c7                	or     %eax,%edi
    shift += 7;
  8041601473:	83 c1 07             	add    $0x7,%ecx
    if (!(byte & 0x80))
  8041601476:	40 84 f6             	test   %sil,%sil
  8041601479:	78 e5                	js     8041601460 <dwarf_read_abbrev_entry+0x726>
  return count;
  804160147b:	48 63 c3             	movslq %ebx,%rax
      entry += count;
  804160147e:	49 01 c0             	add    %rax,%r8
  8041601481:	4c 89 45 c8          	mov    %r8,-0x38(%rbp)
      if (buf && bufsize >= sizeof(unsigned int)) {
  8041601485:	4d 85 e4             	test   %r12,%r12
  8041601488:	0f 84 54 f9 ff ff    	je     8041600de2 <dwarf_read_abbrev_entry+0xa8>
  804160148e:	41 83 fd 03          	cmp    $0x3,%r13d
  8041601492:	0f 86 4a f9 ff ff    	jbe    8041600de2 <dwarf_read_abbrev_entry+0xa8>
        put_unaligned(data, (unsigned int *)buf);
  8041601498:	89 7d d0             	mov    %edi,-0x30(%rbp)
  804160149b:	ba 04 00 00 00       	mov    $0x4,%edx
  80416014a0:	48 8d 75 d0          	lea    -0x30(%rbp),%rsi
  80416014a4:	4c 89 e7             	mov    %r12,%rdi
  80416014a7:	48 b8 64 c5 60 41 80 	movabs $0x804160c564,%rax
  80416014ae:	00 00 00 
  80416014b1:	ff d0                	callq  *%rax
  80416014b3:	e9 2a f9 ff ff       	jmpq   8041600de2 <dwarf_read_abbrev_entry+0xa8>
      int count         = dwarf_read_uleb128(entry, &form);
  80416014b8:	48 8b 7d c8          	mov    -0x38(%rbp),%rdi
  80416014bc:	48 89 fa             	mov    %rdi,%rdx
  count  = 0;
  80416014bf:	41 be 00 00 00 00    	mov    $0x0,%r14d
  shift  = 0;
  80416014c5:	b9 00 00 00 00       	mov    $0x0,%ecx
  result = 0;
  80416014ca:	be 00 00 00 00       	mov    $0x0,%esi
    byte = *addr;
  80416014cf:	44 0f b6 02          	movzbl (%rdx),%r8d
    addr++;
  80416014d3:	48 83 c2 01          	add    $0x1,%rdx
    count++;
  80416014d7:	41 83 c6 01          	add    $0x1,%r14d
    result |= (byte & 0x7f) << shift;
  80416014db:	44 89 c0             	mov    %r8d,%eax
  80416014de:	83 e0 7f             	and    $0x7f,%eax
  80416014e1:	d3 e0                	shl    %cl,%eax
  80416014e3:	09 c6                	or     %eax,%esi
    shift += 7;
  80416014e5:	83 c1 07             	add    $0x7,%ecx
    if (!(byte & 0x80))
  80416014e8:	45 84 c0             	test   %r8b,%r8b
  80416014eb:	78 e2                	js     80416014cf <dwarf_read_abbrev_entry+0x795>
  return count;
  80416014ed:	49 63 c6             	movslq %r14d,%rax
      entry += count;
  80416014f0:	48 01 c7             	add    %rax,%rdi
  80416014f3:	48 89 7d c8          	mov    %rdi,-0x38(%rbp)
      int read = dwarf_read_abbrev_entry(entry, form, buf, bufsize,
  80416014f7:	41 89 d8             	mov    %ebx,%r8d
  80416014fa:	44 89 e9             	mov    %r13d,%ecx
  80416014fd:	4c 89 e2             	mov    %r12,%rdx
  8041601500:	48 b8 3a 0d 60 41 80 	movabs $0x8041600d3a,%rax
  8041601507:	00 00 00 
  804160150a:	ff d0                	callq  *%rax
      bytes    = count + read;
  804160150c:	42 8d 1c 30          	lea    (%rax,%r14,1),%ebx
    } break;
  8041601510:	e9 cd f8 ff ff       	jmpq   8041600de2 <dwarf_read_abbrev_entry+0xa8>
      int count            = dwarf_entry_len(entry, &length);
  8041601515:	4c 8b 75 c8          	mov    -0x38(%rbp),%r14
  initial_len = get_unaligned(addr, uint32_t);
  8041601519:	ba 04 00 00 00       	mov    $0x4,%edx
  804160151e:	4c 89 f6             	mov    %r14,%rsi
  8041601521:	48 8d 7d d0          	lea    -0x30(%rbp),%rdi
  8041601525:	48 b8 64 c5 60 41 80 	movabs $0x804160c564,%rax
  804160152c:	00 00 00 
  804160152f:	ff d0                	callq  *%rax
  8041601531:	8b 45 d0             	mov    -0x30(%rbp),%eax
    *len = initial_len;
  8041601534:	89 c2                	mov    %eax,%edx
  count       = 4;
  8041601536:	bb 04 00 00 00       	mov    $0x4,%ebx
  if (initial_len >= DW_EXT_LO && initial_len <= DW_EXT_HI) {
  804160153b:	83 f8 ef             	cmp    $0xffffffef,%eax
  804160153e:	76 2a                	jbe    804160156a <dwarf_read_abbrev_entry+0x830>
    if (initial_len == DW_EXT_DWARF64) {
  8041601540:	83 f8 ff             	cmp    $0xffffffff,%eax
  8041601543:	74 60                	je     80416015a5 <dwarf_read_abbrev_entry+0x86b>
      cprintf("Unknown DWARF extension\n");
  8041601545:	48 bf c0 cf 60 41 80 	movabs $0x804160cfc0,%rdi
  804160154c:	00 00 00 
  804160154f:	b8 00 00 00 00       	mov    $0x0,%eax
  8041601554:	48 ba 0d 92 60 41 80 	movabs $0x804160920d,%rdx
  804160155b:	00 00 00 
  804160155e:	ff d2                	callq  *%rdx
      unsigned long length = 0;
  8041601560:	ba 00 00 00 00       	mov    $0x0,%edx
      count = 0;
  8041601565:	bb 00 00 00 00       	mov    $0x0,%ebx
      entry += count;
  804160156a:	48 63 c3             	movslq %ebx,%rax
  804160156d:	48 01 45 c8          	add    %rax,-0x38(%rbp)
      if (buf && bufsize >= sizeof(unsigned long)) {
  8041601571:	4d 85 e4             	test   %r12,%r12
  8041601574:	0f 84 68 f8 ff ff    	je     8041600de2 <dwarf_read_abbrev_entry+0xa8>
  804160157a:	41 83 fd 07          	cmp    $0x7,%r13d
  804160157e:	0f 86 5e f8 ff ff    	jbe    8041600de2 <dwarf_read_abbrev_entry+0xa8>
        put_unaligned(length, (unsigned long *)buf);
  8041601584:	48 89 55 d0          	mov    %rdx,-0x30(%rbp)
  8041601588:	ba 08 00 00 00       	mov    $0x8,%edx
  804160158d:	48 8d 75 d0          	lea    -0x30(%rbp),%rsi
  8041601591:	4c 89 e7             	mov    %r12,%rdi
  8041601594:	48 b8 64 c5 60 41 80 	movabs $0x804160c564,%rax
  804160159b:	00 00 00 
  804160159e:	ff d0                	callq  *%rax
  80416015a0:	e9 3d f8 ff ff       	jmpq   8041600de2 <dwarf_read_abbrev_entry+0xa8>
      *len  = get_unaligned((uint64_t *)addr + 4, uint64_t);
  80416015a5:	49 8d 76 20          	lea    0x20(%r14),%rsi
  80416015a9:	ba 08 00 00 00       	mov    $0x8,%edx
  80416015ae:	48 8d 7d d0          	lea    -0x30(%rbp),%rdi
  80416015b2:	48 b8 64 c5 60 41 80 	movabs $0x804160c564,%rax
  80416015b9:	00 00 00 
  80416015bc:	ff d0                	callq  *%rax
  80416015be:	48 8b 55 d0          	mov    -0x30(%rbp),%rdx
      count = 12;
  80416015c2:	bb 0c 00 00 00       	mov    $0xc,%ebx
  80416015c7:	eb a1                	jmp    804160156a <dwarf_read_abbrev_entry+0x830>
      unsigned long count = dwarf_read_uleb128(entry, &length);
  80416015c9:	48 8b 75 c8          	mov    -0x38(%rbp),%rsi
  80416015cd:	48 89 f2             	mov    %rsi,%rdx
  count  = 0;
  80416015d0:	41 b8 00 00 00 00    	mov    $0x0,%r8d
  shift  = 0;
  80416015d6:	b9 00 00 00 00       	mov    $0x0,%ecx
  result = 0;
  80416015db:	bb 00 00 00 00       	mov    $0x0,%ebx
    byte = *addr;
  80416015e0:	0f b6 3a             	movzbl (%rdx),%edi
    addr++;
  80416015e3:	48 83 c2 01          	add    $0x1,%rdx
    count++;
  80416015e7:	41 83 c0 01          	add    $0x1,%r8d
    result |= (byte & 0x7f) << shift;
  80416015eb:	89 f8                	mov    %edi,%eax
  80416015ed:	83 e0 7f             	and    $0x7f,%eax
  80416015f0:	d3 e0                	shl    %cl,%eax
  80416015f2:	09 c3                	or     %eax,%ebx
    shift += 7;
  80416015f4:	83 c1 07             	add    $0x7,%ecx
    if (!(byte & 0x80))
  80416015f7:	40 84 ff             	test   %dil,%dil
  80416015fa:	78 e4                	js     80416015e0 <dwarf_read_abbrev_entry+0x8a6>
  return count;
  80416015fc:	4d 63 f0             	movslq %r8d,%r14
      entry += count;
  80416015ff:	4c 01 f6             	add    %r14,%rsi
  8041601602:	48 89 75 c8          	mov    %rsi,-0x38(%rbp)
      if (buf) {
  8041601606:	4d 85 e4             	test   %r12,%r12
  8041601609:	74 1a                	je     8041601625 <dwarf_read_abbrev_entry+0x8eb>
        memcpy(buf, entry, MIN(length, bufsize));
  804160160b:	41 39 dd             	cmp    %ebx,%r13d
  804160160e:	44 89 ea             	mov    %r13d,%edx
  8041601611:	0f 47 d3             	cmova  %ebx,%edx
  8041601614:	89 d2                	mov    %edx,%edx
  8041601616:	4c 89 e7             	mov    %r12,%rdi
  8041601619:	48 b8 64 c5 60 41 80 	movabs $0x804160c564,%rax
  8041601620:	00 00 00 
  8041601623:	ff d0                	callq  *%rax
      bytes = count + length;
  8041601625:	44 01 f3             	add    %r14d,%ebx
    } break;
  8041601628:	e9 b5 f7 ff ff       	jmpq   8041600de2 <dwarf_read_abbrev_entry+0xa8>
      bytes = 0;
  804160162d:	bb 00 00 00 00       	mov    $0x0,%ebx
      if (buf && sizeof(buf) >= sizeof(bool)) {
  8041601632:	48 85 d2             	test   %rdx,%rdx
  8041601635:	0f 84 a7 f7 ff ff    	je     8041600de2 <dwarf_read_abbrev_entry+0xa8>
        put_unaligned(true, (bool *)buf);
  804160163b:	c6 02 01             	movb   $0x1,(%rdx)
  804160163e:	e9 9f f7 ff ff       	jmpq   8041600de2 <dwarf_read_abbrev_entry+0xa8>
      uint64_t data = get_unaligned(entry, uint64_t);
  8041601643:	ba 08 00 00 00       	mov    $0x8,%edx
  8041601648:	48 8b 75 c8          	mov    -0x38(%rbp),%rsi
  804160164c:	48 8d 7d d0          	lea    -0x30(%rbp),%rdi
  8041601650:	48 b8 64 c5 60 41 80 	movabs $0x804160c564,%rax
  8041601657:	00 00 00 
  804160165a:	ff d0                	callq  *%rax
      entry += sizeof(uint64_t);
  804160165c:	48 83 45 c8 08       	addq   $0x8,-0x38(%rbp)
      if (buf && bufsize >= sizeof(uint64_t)) {
  8041601661:	4d 85 e4             	test   %r12,%r12
  8041601664:	74 06                	je     804160166c <dwarf_read_abbrev_entry+0x932>
  8041601666:	41 83 fd 07          	cmp    $0x7,%r13d
  804160166a:	77 0a                	ja     8041601676 <dwarf_read_abbrev_entry+0x93c>
      bytes = sizeof(uint64_t);
  804160166c:	bb 08 00 00 00       	mov    $0x8,%ebx
  return bytes;
  8041601671:	e9 6c f7 ff ff       	jmpq   8041600de2 <dwarf_read_abbrev_entry+0xa8>
        put_unaligned(data, (uint64_t *)buf);
  8041601676:	ba 08 00 00 00       	mov    $0x8,%edx
  804160167b:	48 8d 75 d0          	lea    -0x30(%rbp),%rsi
  804160167f:	4c 89 e7             	mov    %r12,%rdi
  8041601682:	48 b8 64 c5 60 41 80 	movabs $0x804160c564,%rax
  8041601689:	00 00 00 
  804160168c:	ff d0                	callq  *%rax
      bytes = sizeof(uint64_t);
  804160168e:	bb 08 00 00 00       	mov    $0x8,%ebx
        put_unaligned(data, (uint64_t *)buf);
  8041601693:	e9 4a f7 ff ff       	jmpq   8041600de2 <dwarf_read_abbrev_entry+0xa8>
  int bytes = 0;
  8041601698:	bb 00 00 00 00       	mov    $0x0,%ebx
  804160169d:	e9 40 f7 ff ff       	jmpq   8041600de2 <dwarf_read_abbrev_entry+0xa8>
      bytes = sizeof(Dwarf_Small);
  80416016a2:	bb 01 00 00 00       	mov    $0x1,%ebx
  80416016a7:	e9 36 f7 ff ff       	jmpq   8041600de2 <dwarf_read_abbrev_entry+0xa8>
      bytes = sizeof(Dwarf_Small);
  80416016ac:	bb 01 00 00 00       	mov    $0x1,%ebx
  80416016b1:	e9 2c f7 ff ff       	jmpq   8041600de2 <dwarf_read_abbrev_entry+0xa8>
      bytes = sizeof(Dwarf_Small);
  80416016b6:	bb 01 00 00 00       	mov    $0x1,%ebx
  80416016bb:	e9 22 f7 ff ff       	jmpq   8041600de2 <dwarf_read_abbrev_entry+0xa8>

00000080416016c0 <info_by_address>:
  return 0;
}

int
info_by_address(const struct Dwarf_Addrs *addrs, uintptr_t p,
                Dwarf_Off *store) {
  80416016c0:	55                   	push   %rbp
  80416016c1:	48 89 e5             	mov    %rsp,%rbp
  80416016c4:	41 57                	push   %r15
  80416016c6:	41 56                	push   %r14
  80416016c8:	41 55                	push   %r13
  80416016ca:	41 54                	push   %r12
  80416016cc:	53                   	push   %rbx
  80416016cd:	48 83 ec 48          	sub    $0x48,%rsp
  80416016d1:	48 89 7d b8          	mov    %rdi,-0x48(%rbp)
  80416016d5:	48 89 75 a8          	mov    %rsi,-0x58(%rbp)
  80416016d9:	48 89 55 98          	mov    %rdx,-0x68(%rbp)
  const void *set = addrs->aranges_begin;
  80416016dd:	4c 8b 77 10          	mov    0x10(%rdi),%r14
  initial_len = get_unaligned(addr, uint32_t);
  80416016e1:	49 bd 64 c5 60 41 80 	movabs $0x804160c564,%r13
  80416016e8:	00 00 00 
  80416016eb:	e9 bb 01 00 00       	jmpq   80416018ab <info_by_address+0x1eb>
      *len  = get_unaligned((uint64_t *)addr + 4, uint64_t);
  80416016f0:	49 8d 76 20          	lea    0x20(%r14),%rsi
  80416016f4:	ba 08 00 00 00       	mov    $0x8,%edx
  80416016f9:	48 8d 7d c8          	lea    -0x38(%rbp),%rdi
  80416016fd:	41 ff d5             	callq  *%r13
  8041601700:	4c 8b 65 c8          	mov    -0x38(%rbp),%r12
      count = 12;
  8041601704:	bb 0c 00 00 00       	mov    $0xc,%ebx
  8041601709:	eb 08                	jmp    8041601713 <info_by_address+0x53>
    *len = initial_len;
  804160170b:	45 89 e4             	mov    %r12d,%r12d
  count       = 4;
  804160170e:	bb 04 00 00 00       	mov    $0x4,%ebx
      set += count;
  8041601713:	4c 63 fb             	movslq %ebx,%r15
  8041601716:	4b 8d 1c 3e          	lea    (%r14,%r15,1),%rbx
    const void *set_end = set + len;
  804160171a:	49 01 dc             	add    %rbx,%r12
    Dwarf_Half version = get_unaligned(set, Dwarf_Half);
  804160171d:	ba 02 00 00 00       	mov    $0x2,%edx
  8041601722:	48 89 de             	mov    %rbx,%rsi
  8041601725:	48 8d 7d c8          	lea    -0x38(%rbp),%rdi
  8041601729:	41 ff d5             	callq  *%r13
    set += sizeof(Dwarf_Half);
  804160172c:	48 83 c3 02          	add    $0x2,%rbx
    assert(version == 2);
  8041601730:	66 83 7d c8 02       	cmpw   $0x2,-0x38(%rbp)
  8041601735:	75 7a                	jne    80416017b1 <info_by_address+0xf1>
    Dwarf_Off offset = get_unaligned(set, uint32_t);
  8041601737:	ba 04 00 00 00       	mov    $0x4,%edx
  804160173c:	48 89 de             	mov    %rbx,%rsi
  804160173f:	48 8d 7d c8          	lea    -0x38(%rbp),%rdi
  8041601743:	41 ff d5             	callq  *%r13
  8041601746:	8b 45 c8             	mov    -0x38(%rbp),%eax
  8041601749:	89 45 b0             	mov    %eax,-0x50(%rbp)
    set += count;
  804160174c:	4c 01 fb             	add    %r15,%rbx
    Dwarf_Small address_size = get_unaligned(set++, Dwarf_Small);
  804160174f:	4c 8d 7b 01          	lea    0x1(%rbx),%r15
  8041601753:	ba 01 00 00 00       	mov    $0x1,%edx
  8041601758:	48 89 de             	mov    %rbx,%rsi
  804160175b:	48 8d 7d c8          	lea    -0x38(%rbp),%rdi
  804160175f:	41 ff d5             	callq  *%r13
    assert(address_size == 8);
  8041601762:	80 7d c8 08          	cmpb   $0x8,-0x38(%rbp)
  8041601766:	75 7e                	jne    80416017e6 <info_by_address+0x126>
    Dwarf_Small segment_size = get_unaligned(set++, Dwarf_Small);
  8041601768:	48 83 c3 02          	add    $0x2,%rbx
  804160176c:	ba 01 00 00 00       	mov    $0x1,%edx
  8041601771:	4c 89 fe             	mov    %r15,%rsi
  8041601774:	48 8d 7d c8          	lea    -0x38(%rbp),%rdi
  8041601778:	41 ff d5             	callq  *%r13
    assert(segment_size == 0);
  804160177b:	80 7d c8 00          	cmpb   $0x0,-0x38(%rbp)
  804160177f:	0f 85 96 00 00 00    	jne    804160181b <info_by_address+0x15b>
    uint32_t remainder  = (set - header) % entry_size;
  8041601785:	48 89 d8             	mov    %rbx,%rax
  8041601788:	4c 29 f0             	sub    %r14,%rax
  804160178b:	48 99                	cqto   
  804160178d:	48 c1 ea 3c          	shr    $0x3c,%rdx
  8041601791:	48 01 d0             	add    %rdx,%rax
  8041601794:	83 e0 0f             	and    $0xf,%eax
    if (remainder) {
  8041601797:	48 29 d0             	sub    %rdx,%rax
  804160179a:	0f 84 b5 00 00 00    	je     8041601855 <info_by_address+0x195>
      set += 2 * address_size - remainder;
  80416017a0:	ba 10 00 00 00       	mov    $0x10,%edx
  80416017a5:	89 d1                	mov    %edx,%ecx
  80416017a7:	29 c1                	sub    %eax,%ecx
  80416017a9:	48 01 cb             	add    %rcx,%rbx
  80416017ac:	e9 a4 00 00 00       	jmpq   8041601855 <info_by_address+0x195>
    assert(version == 2);
  80416017b1:	48 b9 3e d0 60 41 80 	movabs $0x804160d03e,%rcx
  80416017b8:	00 00 00 
  80416017bb:	48 ba d9 cf 60 41 80 	movabs $0x804160cfd9,%rdx
  80416017c2:	00 00 00 
  80416017c5:	be 20 00 00 00       	mov    $0x20,%esi
  80416017ca:	48 bf ee cf 60 41 80 	movabs $0x804160cfee,%rdi
  80416017d1:	00 00 00 
  80416017d4:	b8 00 00 00 00       	mov    $0x0,%eax
  80416017d9:	49 b8 5a 02 60 41 80 	movabs $0x804160025a,%r8
  80416017e0:	00 00 00 
  80416017e3:	41 ff d0             	callq  *%r8
    assert(address_size == 8);
  80416017e6:	48 b9 fb cf 60 41 80 	movabs $0x804160cffb,%rcx
  80416017ed:	00 00 00 
  80416017f0:	48 ba d9 cf 60 41 80 	movabs $0x804160cfd9,%rdx
  80416017f7:	00 00 00 
  80416017fa:	be 24 00 00 00       	mov    $0x24,%esi
  80416017ff:	48 bf ee cf 60 41 80 	movabs $0x804160cfee,%rdi
  8041601806:	00 00 00 
  8041601809:	b8 00 00 00 00       	mov    $0x0,%eax
  804160180e:	49 b8 5a 02 60 41 80 	movabs $0x804160025a,%r8
  8041601815:	00 00 00 
  8041601818:	41 ff d0             	callq  *%r8
    assert(segment_size == 0);
  804160181b:	48 b9 0d d0 60 41 80 	movabs $0x804160d00d,%rcx
  8041601822:	00 00 00 
  8041601825:	48 ba d9 cf 60 41 80 	movabs $0x804160cfd9,%rdx
  804160182c:	00 00 00 
  804160182f:	be 26 00 00 00       	mov    $0x26,%esi
  8041601834:	48 bf ee cf 60 41 80 	movabs $0x804160cfee,%rdi
  804160183b:	00 00 00 
  804160183e:	b8 00 00 00 00       	mov    $0x0,%eax
  8041601843:	49 b8 5a 02 60 41 80 	movabs $0x804160025a,%r8
  804160184a:	00 00 00 
  804160184d:	41 ff d0             	callq  *%r8
    } while (set < set_end);
  8041601850:	4c 39 e3             	cmp    %r12,%rbx
  8041601853:	73 51                	jae    80416018a6 <info_by_address+0x1e6>
      addr = (void *)get_unaligned(set, uintptr_t);
  8041601855:	ba 08 00 00 00       	mov    $0x8,%edx
  804160185a:	48 89 de             	mov    %rbx,%rsi
  804160185d:	48 8d 7d c8          	lea    -0x38(%rbp),%rdi
  8041601861:	41 ff d5             	callq  *%r13
  8041601864:	4c 8b 75 c8          	mov    -0x38(%rbp),%r14
      size = get_unaligned(set, uint32_t);
  8041601868:	48 8d 73 08          	lea    0x8(%rbx),%rsi
  804160186c:	ba 04 00 00 00       	mov    $0x4,%edx
  8041601871:	48 8d 7d c8          	lea    -0x38(%rbp),%rdi
  8041601875:	41 ff d5             	callq  *%r13
  8041601878:	8b 45 c8             	mov    -0x38(%rbp),%eax
      set += address_size;
  804160187b:	48 83 c3 10          	add    $0x10,%rbx
      if ((uintptr_t)addr <= p &&
  804160187f:	48 8b 4d a8          	mov    -0x58(%rbp),%rcx
  8041601883:	4c 39 f1             	cmp    %r14,%rcx
  8041601886:	72 c8                	jb     8041601850 <info_by_address+0x190>
      size = get_unaligned(set, uint32_t);
  8041601888:	89 c0                	mov    %eax,%eax
          p <= (uintptr_t)addr + size) {
  804160188a:	4c 01 f0             	add    %r14,%rax
      if ((uintptr_t)addr <= p &&
  804160188d:	48 39 c1             	cmp    %rax,%rcx
  8041601890:	77 be                	ja     8041601850 <info_by_address+0x190>
    Dwarf_Off offset = get_unaligned(set, uint32_t);
  8041601892:	48 8b 45 98          	mov    -0x68(%rbp),%rax
  8041601896:	8b 4d b0             	mov    -0x50(%rbp),%ecx
  8041601899:	48 89 08             	mov    %rcx,(%rax)
        return 0;
  804160189c:	b8 00 00 00 00       	mov    $0x0,%eax
  80416018a1:	e9 5a 04 00 00       	jmpq   8041601d00 <info_by_address+0x640>
      set += address_size;
  80416018a6:	49 89 de             	mov    %rbx,%r14
    assert(set == set_end);
  80416018a9:	75 71                	jne    804160191c <info_by_address+0x25c>
  while ((unsigned char *)set < addrs->aranges_end) {
  80416018ab:	48 8b 45 b8          	mov    -0x48(%rbp),%rax
  80416018af:	4c 3b 70 18          	cmp    0x18(%rax),%r14
  80416018b3:	73 42                	jae    80416018f7 <info_by_address+0x237>
  initial_len = get_unaligned(addr, uint32_t);
  80416018b5:	ba 04 00 00 00       	mov    $0x4,%edx
  80416018ba:	4c 89 f6             	mov    %r14,%rsi
  80416018bd:	48 8d 7d c8          	lea    -0x38(%rbp),%rdi
  80416018c1:	41 ff d5             	callq  *%r13
  80416018c4:	44 8b 65 c8          	mov    -0x38(%rbp),%r12d
  if (initial_len >= DW_EXT_LO && initial_len <= DW_EXT_HI) {
  80416018c8:	41 83 fc ef          	cmp    $0xffffffef,%r12d
  80416018cc:	0f 86 39 fe ff ff    	jbe    804160170b <info_by_address+0x4b>
    if (initial_len == DW_EXT_DWARF64) {
  80416018d2:	41 83 fc ff          	cmp    $0xffffffff,%r12d
  80416018d6:	0f 84 14 fe ff ff    	je     80416016f0 <info_by_address+0x30>
      cprintf("Unknown DWARF extension\n");
  80416018dc:	48 bf c0 cf 60 41 80 	movabs $0x804160cfc0,%rdi
  80416018e3:	00 00 00 
  80416018e6:	b8 00 00 00 00       	mov    $0x0,%eax
  80416018eb:	48 ba 0d 92 60 41 80 	movabs $0x804160920d,%rdx
  80416018f2:	00 00 00 
  80416018f5:	ff d2                	callq  *%rdx
  const void *entry = addrs->info_begin;
  80416018f7:	48 8b 45 b8          	mov    -0x48(%rbp),%rax
  80416018fb:	48 8b 58 20          	mov    0x20(%rax),%rbx
  80416018ff:	48 89 5d b0          	mov    %rbx,-0x50(%rbp)
  while ((unsigned char *)entry < addrs->info_end) {
  8041601903:	48 3b 58 28          	cmp    0x28(%rax),%rbx
  8041601907:	0f 83 5b 04 00 00    	jae    8041601d68 <info_by_address+0x6a8>
  initial_len = get_unaligned(addr, uint32_t);
  804160190d:	49 bf 64 c5 60 41 80 	movabs $0x804160c564,%r15
  8041601914:	00 00 00 
  8041601917:	e9 9f 03 00 00       	jmpq   8041601cbb <info_by_address+0x5fb>
    assert(set == set_end);
  804160191c:	48 b9 1f d0 60 41 80 	movabs $0x804160d01f,%rcx
  8041601923:	00 00 00 
  8041601926:	48 ba d9 cf 60 41 80 	movabs $0x804160cfd9,%rdx
  804160192d:	00 00 00 
  8041601930:	be 3a 00 00 00       	mov    $0x3a,%esi
  8041601935:	48 bf ee cf 60 41 80 	movabs $0x804160cfee,%rdi
  804160193c:	00 00 00 
  804160193f:	b8 00 00 00 00       	mov    $0x0,%eax
  8041601944:	49 b8 5a 02 60 41 80 	movabs $0x804160025a,%r8
  804160194b:	00 00 00 
  804160194e:	41 ff d0             	callq  *%r8
      *len  = get_unaligned((uint64_t *)addr + 4, uint64_t);
  8041601951:	48 8b 45 b0          	mov    -0x50(%rbp),%rax
  8041601955:	48 8d 70 20          	lea    0x20(%rax),%rsi
  8041601959:	ba 08 00 00 00       	mov    $0x8,%edx
  804160195e:	48 8d 7d c8          	lea    -0x38(%rbp),%rdi
  8041601962:	41 ff d7             	callq  *%r15
  8041601965:	48 8b 45 c8          	mov    -0x38(%rbp),%rax
      count = 12;
  8041601969:	41 bc 0c 00 00 00    	mov    $0xc,%r12d
  804160196f:	eb 08                	jmp    8041601979 <info_by_address+0x2b9>
    *len = initial_len;
  8041601971:	89 c0                	mov    %eax,%eax
  count       = 4;
  8041601973:	41 bc 04 00 00 00    	mov    $0x4,%r12d
      entry += count;
  8041601979:	4d 63 e4             	movslq %r12d,%r12
  804160197c:	48 8b 4d b0          	mov    -0x50(%rbp),%rcx
  8041601980:	4a 8d 1c 21          	lea    (%rcx,%r12,1),%rbx
    const void *entry_end = entry + len;
  8041601984:	48 01 d8             	add    %rbx,%rax
  8041601987:	48 89 45 a0          	mov    %rax,-0x60(%rbp)
    Dwarf_Half version = get_unaligned(entry, Dwarf_Half);
  804160198b:	ba 02 00 00 00       	mov    $0x2,%edx
  8041601990:	48 89 de             	mov    %rbx,%rsi
  8041601993:	48 8d 7d c8          	lea    -0x38(%rbp),%rdi
  8041601997:	41 ff d7             	callq  *%r15
    entry += sizeof(Dwarf_Half);
  804160199a:	48 83 c3 02          	add    $0x2,%rbx
    assert(version == 4 || version == 2);
  804160199e:	0f b7 45 c8          	movzwl -0x38(%rbp),%eax
  80416019a2:	83 e8 02             	sub    $0x2,%eax
  80416019a5:	66 a9 fd ff          	test   $0xfffd,%ax
  80416019a9:	0f 85 07 01 00 00    	jne    8041601ab6 <info_by_address+0x3f6>
    Dwarf_Off abbrev_offset = get_unaligned(entry, uint32_t);
  80416019af:	ba 04 00 00 00       	mov    $0x4,%edx
  80416019b4:	48 89 de             	mov    %rbx,%rsi
  80416019b7:	48 8d 7d c8          	lea    -0x38(%rbp),%rdi
  80416019bb:	41 ff d7             	callq  *%r15
  80416019be:	44 8b 6d c8          	mov    -0x38(%rbp),%r13d
    entry += count;
  80416019c2:	4a 8d 34 23          	lea    (%rbx,%r12,1),%rsi
    Dwarf_Small address_size = get_unaligned(entry++, Dwarf_Small);
  80416019c6:	4c 8d 66 01          	lea    0x1(%rsi),%r12
  80416019ca:	ba 01 00 00 00       	mov    $0x1,%edx
  80416019cf:	48 8d 7d c8          	lea    -0x38(%rbp),%rdi
  80416019d3:	41 ff d7             	callq  *%r15
    assert(address_size == 8);
  80416019d6:	80 7d c8 08          	cmpb   $0x8,-0x38(%rbp)
  80416019da:	0f 85 0b 01 00 00    	jne    8041601aeb <info_by_address+0x42b>
  80416019e0:	4c 89 e6             	mov    %r12,%rsi
  count  = 0;
  80416019e3:	b8 00 00 00 00       	mov    $0x0,%eax
  shift  = 0;
  80416019e8:	b9 00 00 00 00       	mov    $0x0,%ecx
  result = 0;
  80416019ed:	ba 00 00 00 00       	mov    $0x0,%edx
    byte = *addr;
  80416019f2:	44 0f b6 06          	movzbl (%rsi),%r8d
    addr++;
  80416019f6:	48 83 c6 01          	add    $0x1,%rsi
    count++;
  80416019fa:	83 c0 01             	add    $0x1,%eax
    result |= (byte & 0x7f) << shift;
  80416019fd:	44 89 c7             	mov    %r8d,%edi
  8041601a00:	83 e7 7f             	and    $0x7f,%edi
  8041601a03:	d3 e7                	shl    %cl,%edi
  8041601a05:	09 fa                	or     %edi,%edx
    shift += 7;
  8041601a07:	83 c1 07             	add    $0x7,%ecx
    if (!(byte & 0x80))
  8041601a0a:	45 84 c0             	test   %r8b,%r8b
  8041601a0d:	78 e3                	js     80416019f2 <info_by_address+0x332>
  return count;
  8041601a0f:	48 98                	cltq   
    assert(abbrev_code != 0);
  8041601a11:	85 d2                	test   %edx,%edx
  8041601a13:	0f 84 07 01 00 00    	je     8041601b20 <info_by_address+0x460>
    entry += count;
  8041601a19:	49 01 c4             	add    %rax,%r12
    const void *abbrev_entry   = addrs->abbrev_begin + abbrev_offset;
  8041601a1c:	48 8b 45 b8          	mov    -0x48(%rbp),%rax
  8041601a20:	4c 03 28             	add    (%rax),%r13
  8041601a23:	4c 89 ef             	mov    %r13,%rdi
  count  = 0;
  8041601a26:	b8 00 00 00 00       	mov    $0x0,%eax
  shift  = 0;
  8041601a2b:	b9 00 00 00 00       	mov    $0x0,%ecx
  result = 0;
  8041601a30:	be 00 00 00 00       	mov    $0x0,%esi
    byte = *addr;
  8041601a35:	44 0f b6 0f          	movzbl (%rdi),%r9d
    addr++;
  8041601a39:	48 83 c7 01          	add    $0x1,%rdi
    count++;
  8041601a3d:	83 c0 01             	add    $0x1,%eax
    result |= (byte & 0x7f) << shift;
  8041601a40:	45 89 c8             	mov    %r9d,%r8d
  8041601a43:	41 83 e0 7f          	and    $0x7f,%r8d
  8041601a47:	41 d3 e0             	shl    %cl,%r8d
  8041601a4a:	44 09 c6             	or     %r8d,%esi
    shift += 7;
  8041601a4d:	83 c1 07             	add    $0x7,%ecx
    if (!(byte & 0x80))
  8041601a50:	45 84 c9             	test   %r9b,%r9b
  8041601a53:	78 e0                	js     8041601a35 <info_by_address+0x375>
  return count;
  8041601a55:	48 98                	cltq   
    abbrev_entry += count;
  8041601a57:	49 01 c5             	add    %rax,%r13
    assert(table_abbrev_code == abbrev_code);
  8041601a5a:	39 f2                	cmp    %esi,%edx
  8041601a5c:	0f 85 f3 00 00 00    	jne    8041601b55 <info_by_address+0x495>
  8041601a62:	4c 89 ee             	mov    %r13,%rsi
  count  = 0;
  8041601a65:	b8 00 00 00 00       	mov    $0x0,%eax
  shift  = 0;
  8041601a6a:	b9 00 00 00 00       	mov    $0x0,%ecx
  result = 0;
  8041601a6f:	ba 00 00 00 00       	mov    $0x0,%edx
    byte = *addr;
  8041601a74:	44 0f b6 06          	movzbl (%rsi),%r8d
    addr++;
  8041601a78:	48 83 c6 01          	add    $0x1,%rsi
    count++;
  8041601a7c:	83 c0 01             	add    $0x1,%eax
    result |= (byte & 0x7f) << shift;
  8041601a7f:	44 89 c7             	mov    %r8d,%edi
  8041601a82:	83 e7 7f             	and    $0x7f,%edi
  8041601a85:	d3 e7                	shl    %cl,%edi
  8041601a87:	09 fa                	or     %edi,%edx
    shift += 7;
  8041601a89:	83 c1 07             	add    $0x7,%ecx
    if (!(byte & 0x80))
  8041601a8c:	45 84 c0             	test   %r8b,%r8b
  8041601a8f:	78 e3                	js     8041601a74 <info_by_address+0x3b4>
  return count;
  8041601a91:	48 98                	cltq   
    assert(tag == DW_TAG_compile_unit);
  8041601a93:	83 fa 11             	cmp    $0x11,%edx
  8041601a96:	0f 85 ee 00 00 00    	jne    8041601b8a <info_by_address+0x4ca>
    abbrev_entry++;
  8041601a9c:	49 8d 5c 05 01       	lea    0x1(%r13,%rax,1),%rbx
    uintptr_t low_pc = 0, high_pc = 0;
  8041601aa1:	48 c7 45 c0 00 00 00 	movq   $0x0,-0x40(%rbp)
  8041601aa8:	00 
  8041601aa9:	48 c7 45 c8 00 00 00 	movq   $0x0,-0x38(%rbp)
  8041601ab0:	00 
  8041601ab1:	e9 2f 01 00 00       	jmpq   8041601be5 <info_by_address+0x525>
    assert(version == 4 || version == 2);
  8041601ab6:	48 b9 2e d0 60 41 80 	movabs $0x804160d02e,%rcx
  8041601abd:	00 00 00 
  8041601ac0:	48 ba d9 cf 60 41 80 	movabs $0x804160cfd9,%rdx
  8041601ac7:	00 00 00 
  8041601aca:	be 43 01 00 00       	mov    $0x143,%esi
  8041601acf:	48 bf ee cf 60 41 80 	movabs $0x804160cfee,%rdi
  8041601ad6:	00 00 00 
  8041601ad9:	b8 00 00 00 00       	mov    $0x0,%eax
  8041601ade:	49 b8 5a 02 60 41 80 	movabs $0x804160025a,%r8
  8041601ae5:	00 00 00 
  8041601ae8:	41 ff d0             	callq  *%r8
    assert(address_size == 8);
  8041601aeb:	48 b9 fb cf 60 41 80 	movabs $0x804160cffb,%rcx
  8041601af2:	00 00 00 
  8041601af5:	48 ba d9 cf 60 41 80 	movabs $0x804160cfd9,%rdx
  8041601afc:	00 00 00 
  8041601aff:	be 47 01 00 00       	mov    $0x147,%esi
  8041601b04:	48 bf ee cf 60 41 80 	movabs $0x804160cfee,%rdi
  8041601b0b:	00 00 00 
  8041601b0e:	b8 00 00 00 00       	mov    $0x0,%eax
  8041601b13:	49 b8 5a 02 60 41 80 	movabs $0x804160025a,%r8
  8041601b1a:	00 00 00 
  8041601b1d:	41 ff d0             	callq  *%r8
    assert(abbrev_code != 0);
  8041601b20:	48 b9 4b d0 60 41 80 	movabs $0x804160d04b,%rcx
  8041601b27:	00 00 00 
  8041601b2a:	48 ba d9 cf 60 41 80 	movabs $0x804160cfd9,%rdx
  8041601b31:	00 00 00 
  8041601b34:	be 4c 01 00 00       	mov    $0x14c,%esi
  8041601b39:	48 bf ee cf 60 41 80 	movabs $0x804160cfee,%rdi
  8041601b40:	00 00 00 
  8041601b43:	b8 00 00 00 00       	mov    $0x0,%eax
  8041601b48:	49 b8 5a 02 60 41 80 	movabs $0x804160025a,%r8
  8041601b4f:	00 00 00 
  8041601b52:	41 ff d0             	callq  *%r8
    assert(table_abbrev_code == abbrev_code);
  8041601b55:	48 b9 80 d1 60 41 80 	movabs $0x804160d180,%rcx
  8041601b5c:	00 00 00 
  8041601b5f:	48 ba d9 cf 60 41 80 	movabs $0x804160cfd9,%rdx
  8041601b66:	00 00 00 
  8041601b69:	be 54 01 00 00       	mov    $0x154,%esi
  8041601b6e:	48 bf ee cf 60 41 80 	movabs $0x804160cfee,%rdi
  8041601b75:	00 00 00 
  8041601b78:	b8 00 00 00 00       	mov    $0x0,%eax
  8041601b7d:	49 b8 5a 02 60 41 80 	movabs $0x804160025a,%r8
  8041601b84:	00 00 00 
  8041601b87:	41 ff d0             	callq  *%r8
    assert(tag == DW_TAG_compile_unit);
  8041601b8a:	48 b9 5c d0 60 41 80 	movabs $0x804160d05c,%rcx
  8041601b91:	00 00 00 
  8041601b94:	48 ba d9 cf 60 41 80 	movabs $0x804160cfd9,%rdx
  8041601b9b:	00 00 00 
  8041601b9e:	be 58 01 00 00       	mov    $0x158,%esi
  8041601ba3:	48 bf ee cf 60 41 80 	movabs $0x804160cfee,%rdi
  8041601baa:	00 00 00 
  8041601bad:	b8 00 00 00 00       	mov    $0x0,%eax
  8041601bb2:	49 b8 5a 02 60 41 80 	movabs $0x804160025a,%r8
  8041601bb9:	00 00 00 
  8041601bbc:	41 ff d0             	callq  *%r8
        count = dwarf_read_abbrev_entry(
  8041601bbf:	41 b8 08 00 00 00    	mov    $0x8,%r8d
  8041601bc5:	b9 08 00 00 00       	mov    $0x8,%ecx
  8041601bca:	48 8d 55 c0          	lea    -0x40(%rbp),%rdx
  8041601bce:	44 89 f6             	mov    %r14d,%esi
  8041601bd1:	4c 89 e7             	mov    %r12,%rdi
  8041601bd4:	48 b8 3a 0d 60 41 80 	movabs $0x8041600d3a,%rax
  8041601bdb:	00 00 00 
  8041601bde:	ff d0                	callq  *%rax
      entry += count;
  8041601be0:	48 98                	cltq   
  8041601be2:	49 01 c4             	add    %rax,%r12
  result = 0;
  8041601be5:	48 89 da             	mov    %rbx,%rdx
  count  = 0;
  8041601be8:	b8 00 00 00 00       	mov    $0x0,%eax
  shift  = 0;
  8041601bed:	b9 00 00 00 00       	mov    $0x0,%ecx
  result = 0;
  8041601bf2:	41 bd 00 00 00 00    	mov    $0x0,%r13d
    byte = *addr;
  8041601bf8:	0f b6 3a             	movzbl (%rdx),%edi
    addr++;
  8041601bfb:	48 83 c2 01          	add    $0x1,%rdx
    count++;
  8041601bff:	83 c0 01             	add    $0x1,%eax
    result |= (byte & 0x7f) << shift;
  8041601c02:	89 fe                	mov    %edi,%esi
  8041601c04:	83 e6 7f             	and    $0x7f,%esi
  8041601c07:	d3 e6                	shl    %cl,%esi
  8041601c09:	41 09 f5             	or     %esi,%r13d
    shift += 7;
  8041601c0c:	83 c1 07             	add    $0x7,%ecx
    if (!(byte & 0x80))
  8041601c0f:	40 84 ff             	test   %dil,%dil
  8041601c12:	78 e4                	js     8041601bf8 <info_by_address+0x538>
  return count;
  8041601c14:	48 98                	cltq   
      abbrev_entry += count;
  8041601c16:	48 01 c3             	add    %rax,%rbx
  8041601c19:	48 89 da             	mov    %rbx,%rdx
  count  = 0;
  8041601c1c:	b8 00 00 00 00       	mov    $0x0,%eax
  shift  = 0;
  8041601c21:	b9 00 00 00 00       	mov    $0x0,%ecx
  result = 0;
  8041601c26:	41 be 00 00 00 00    	mov    $0x0,%r14d
    byte = *addr;
  8041601c2c:	0f b6 3a             	movzbl (%rdx),%edi
    addr++;
  8041601c2f:	48 83 c2 01          	add    $0x1,%rdx
    count++;
  8041601c33:	83 c0 01             	add    $0x1,%eax
    result |= (byte & 0x7f) << shift;
  8041601c36:	89 fe                	mov    %edi,%esi
  8041601c38:	83 e6 7f             	and    $0x7f,%esi
  8041601c3b:	d3 e6                	shl    %cl,%esi
  8041601c3d:	41 09 f6             	or     %esi,%r14d
    shift += 7;
  8041601c40:	83 c1 07             	add    $0x7,%ecx
    if (!(byte & 0x80))
  8041601c43:	40 84 ff             	test   %dil,%dil
  8041601c46:	78 e4                	js     8041601c2c <info_by_address+0x56c>
  return count;
  8041601c48:	48 98                	cltq   
      abbrev_entry += count;
  8041601c4a:	48 01 c3             	add    %rax,%rbx
      if (name == DW_AT_low_pc) {
  8041601c4d:	41 83 fd 11          	cmp    $0x11,%r13d
  8041601c51:	0f 84 68 ff ff ff    	je     8041601bbf <info_by_address+0x4ff>
      } else if (name == DW_AT_high_pc) {
  8041601c57:	41 83 fd 12          	cmp    $0x12,%r13d
  8041601c5b:	0f 84 ae 00 00 00    	je     8041601d0f <info_by_address+0x64f>
        count = dwarf_read_abbrev_entry(
  8041601c61:	41 b8 08 00 00 00    	mov    $0x8,%r8d
  8041601c67:	b9 00 00 00 00       	mov    $0x0,%ecx
  8041601c6c:	ba 00 00 00 00       	mov    $0x0,%edx
  8041601c71:	44 89 f6             	mov    %r14d,%esi
  8041601c74:	4c 89 e7             	mov    %r12,%rdi
  8041601c77:	48 b8 3a 0d 60 41 80 	movabs $0x8041600d3a,%rax
  8041601c7e:	00 00 00 
  8041601c81:	ff d0                	callq  *%rax
      entry += count;
  8041601c83:	48 98                	cltq   
  8041601c85:	49 01 c4             	add    %rax,%r12
    } while (name != 0 || form != 0);
  8041601c88:	45 09 f5             	or     %r14d,%r13d
  8041601c8b:	0f 85 54 ff ff ff    	jne    8041601be5 <info_by_address+0x525>
    if (p >= low_pc && p <= high_pc) {
  8041601c91:	48 8b 45 a8          	mov    -0x58(%rbp),%rax
  8041601c95:	48 3b 45 c0          	cmp    -0x40(%rbp),%rax
  8041601c99:	72 0a                	jb     8041601ca5 <info_by_address+0x5e5>
  8041601c9b:	48 3b 45 c8          	cmp    -0x38(%rbp),%rax
  8041601c9f:	0f 86 a2 00 00 00    	jbe    8041601d47 <info_by_address+0x687>
    entry = entry_end;
  8041601ca5:	48 8b 45 a0          	mov    -0x60(%rbp),%rax
  8041601ca9:	48 89 45 b0          	mov    %rax,-0x50(%rbp)
  while ((unsigned char *)entry < addrs->info_end) {
  8041601cad:	48 8b 4d b8          	mov    -0x48(%rbp),%rcx
  8041601cb1:	48 3b 41 28          	cmp    0x28(%rcx),%rax
  8041601cb5:	0f 83 a6 00 00 00    	jae    8041601d61 <info_by_address+0x6a1>
  initial_len = get_unaligned(addr, uint32_t);
  8041601cbb:	ba 04 00 00 00       	mov    $0x4,%edx
  8041601cc0:	48 8b 75 b0          	mov    -0x50(%rbp),%rsi
  8041601cc4:	48 8d 7d c8          	lea    -0x38(%rbp),%rdi
  8041601cc8:	41 ff d7             	callq  *%r15
  8041601ccb:	8b 45 c8             	mov    -0x38(%rbp),%eax
  if (initial_len >= DW_EXT_LO && initial_len <= DW_EXT_HI) {
  8041601cce:	83 f8 ef             	cmp    $0xffffffef,%eax
  8041601cd1:	0f 86 9a fc ff ff    	jbe    8041601971 <info_by_address+0x2b1>
    if (initial_len == DW_EXT_DWARF64) {
  8041601cd7:	83 f8 ff             	cmp    $0xffffffff,%eax
  8041601cda:	0f 84 71 fc ff ff    	je     8041601951 <info_by_address+0x291>
      cprintf("Unknown DWARF extension\n");
  8041601ce0:	48 bf c0 cf 60 41 80 	movabs $0x804160cfc0,%rdi
  8041601ce7:	00 00 00 
  8041601cea:	b8 00 00 00 00       	mov    $0x0,%eax
  8041601cef:	48 ba 0d 92 60 41 80 	movabs $0x804160920d,%rdx
  8041601cf6:	00 00 00 
  8041601cf9:	ff d2                	callq  *%rdx
      return -E_BAD_DWARF;
  8041601cfb:	b8 fa ff ff ff       	mov    $0xfffffffa,%eax
  int code = info_by_address_debug_aranges(addrs, p, store);
  if (code < 0) {
    code = info_by_address_debug_info(addrs, p, store);
  }
  return code;
}
  8041601d00:	48 83 c4 48          	add    $0x48,%rsp
  8041601d04:	5b                   	pop    %rbx
  8041601d05:	41 5c                	pop    %r12
  8041601d07:	41 5d                	pop    %r13
  8041601d09:	41 5e                	pop    %r14
  8041601d0b:	41 5f                	pop    %r15
  8041601d0d:	5d                   	pop    %rbp
  8041601d0e:	c3                   	retq   
        count = dwarf_read_abbrev_entry(
  8041601d0f:	41 b8 08 00 00 00    	mov    $0x8,%r8d
  8041601d15:	b9 08 00 00 00       	mov    $0x8,%ecx
  8041601d1a:	48 8d 55 c8          	lea    -0x38(%rbp),%rdx
  8041601d1e:	44 89 f6             	mov    %r14d,%esi
  8041601d21:	4c 89 e7             	mov    %r12,%rdi
  8041601d24:	48 b8 3a 0d 60 41 80 	movabs $0x8041600d3a,%rax
  8041601d2b:	00 00 00 
  8041601d2e:	ff d0                	callq  *%rax
        if (form != DW_FORM_addr) {
  8041601d30:	41 83 fe 01          	cmp    $0x1,%r14d
  8041601d34:	0f 84 a6 fe ff ff    	je     8041601be0 <info_by_address+0x520>
          high_pc += low_pc;
  8041601d3a:	48 8b 55 c0          	mov    -0x40(%rbp),%rdx
  8041601d3e:	48 01 55 c8          	add    %rdx,-0x38(%rbp)
  8041601d42:	e9 99 fe ff ff       	jmpq   8041601be0 <info_by_address+0x520>
          (const unsigned char *)header - addrs->info_begin;
  8041601d47:	48 8b 4d b8          	mov    -0x48(%rbp),%rcx
  8041601d4b:	48 8b 45 b0          	mov    -0x50(%rbp),%rax
  8041601d4f:	48 2b 41 20          	sub    0x20(%rcx),%rax
      *store =
  8041601d53:	48 8b 4d 98          	mov    -0x68(%rbp),%rcx
  8041601d57:	48 89 01             	mov    %rax,(%rcx)
      return 0;
  8041601d5a:	b8 00 00 00 00       	mov    $0x0,%eax
  8041601d5f:	eb 9f                	jmp    8041601d00 <info_by_address+0x640>
  return 0;
  8041601d61:	b8 00 00 00 00       	mov    $0x0,%eax
  8041601d66:	eb 98                	jmp    8041601d00 <info_by_address+0x640>
  8041601d68:	b8 00 00 00 00       	mov    $0x0,%eax
  8041601d6d:	eb 91                	jmp    8041601d00 <info_by_address+0x640>

0000008041601d6f <file_name_by_info>:

int
file_name_by_info(const struct Dwarf_Addrs *addrs, Dwarf_Off offset,
                  char *buf, int buflen, Dwarf_Off *line_off) {
  8041601d6f:	55                   	push   %rbp
  8041601d70:	48 89 e5             	mov    %rsp,%rbp
  8041601d73:	41 57                	push   %r15
  8041601d75:	41 56                	push   %r14
  8041601d77:	41 55                	push   %r13
  8041601d79:	41 54                	push   %r12
  8041601d7b:	53                   	push   %rbx
  8041601d7c:	48 83 ec 38          	sub    $0x38,%rsp
  if (offset > addrs->info_end - addrs->info_begin) {
  8041601d80:	48 8b 5f 20          	mov    0x20(%rdi),%rbx
  8041601d84:	48 8b 47 28          	mov    0x28(%rdi),%rax
  8041601d88:	48 29 d8             	sub    %rbx,%rax
  8041601d8b:	48 39 f0             	cmp    %rsi,%rax
  8041601d8e:	0f 82 f5 02 00 00    	jb     8041602089 <file_name_by_info+0x31a>
  8041601d94:	4c 89 45 a8          	mov    %r8,-0x58(%rbp)
  8041601d98:	89 4d b4             	mov    %ecx,-0x4c(%rbp)
  8041601d9b:	48 89 55 b8          	mov    %rdx,-0x48(%rbp)
  8041601d9f:	48 89 7d a0          	mov    %rdi,-0x60(%rbp)
    return -E_INVAL;
  }
  const void *entry = addrs->info_begin + offset;
  8041601da3:	48 01 f3             	add    %rsi,%rbx
  initial_len = get_unaligned(addr, uint32_t);
  8041601da6:	ba 04 00 00 00       	mov    $0x4,%edx
  8041601dab:	48 89 de             	mov    %rbx,%rsi
  8041601dae:	48 8d 7d c8          	lea    -0x38(%rbp),%rdi
  8041601db2:	48 b8 64 c5 60 41 80 	movabs $0x804160c564,%rax
  8041601db9:	00 00 00 
  8041601dbc:	ff d0                	callq  *%rax
  8041601dbe:	8b 45 c8             	mov    -0x38(%rbp),%eax
  if (initial_len >= DW_EXT_LO && initial_len <= DW_EXT_HI) {
  8041601dc1:	83 f8 ef             	cmp    $0xffffffef,%eax
  8041601dc4:	0f 86 c9 02 00 00    	jbe    8041602093 <file_name_by_info+0x324>
    if (initial_len == DW_EXT_DWARF64) {
  8041601dca:	83 f8 ff             	cmp    $0xffffffff,%eax
  8041601dcd:	74 25                	je     8041601df4 <file_name_by_info+0x85>
      cprintf("Unknown DWARF extension\n");
  8041601dcf:	48 bf c0 cf 60 41 80 	movabs $0x804160cfc0,%rdi
  8041601dd6:	00 00 00 
  8041601dd9:	b8 00 00 00 00       	mov    $0x0,%eax
  8041601dde:	48 ba 0d 92 60 41 80 	movabs $0x804160920d,%rdx
  8041601de5:	00 00 00 
  8041601de8:	ff d2                	callq  *%rdx
  int count         = 0;
  unsigned long len = 0;
  count             = dwarf_entry_len(entry, &len);
  if (count == 0) {
    return -E_BAD_DWARF;
  8041601dea:	b8 fa ff ff ff       	mov    $0xfffffffa,%eax
  8041601def:	e9 00 02 00 00       	jmpq   8041601ff4 <file_name_by_info+0x285>
      *len  = get_unaligned((uint64_t *)addr + 4, uint64_t);
  8041601df4:	48 8d 73 20          	lea    0x20(%rbx),%rsi
  8041601df8:	ba 08 00 00 00       	mov    $0x8,%edx
  8041601dfd:	48 8d 7d c8          	lea    -0x38(%rbp),%rdi
  8041601e01:	48 b8 64 c5 60 41 80 	movabs $0x804160c564,%rax
  8041601e08:	00 00 00 
  8041601e0b:	ff d0                	callq  *%rax
      count = 12;
  8041601e0d:	41 bd 0c 00 00 00    	mov    $0xc,%r13d
  8041601e13:	e9 81 02 00 00       	jmpq   8041602099 <file_name_by_info+0x32a>
  }

  // Parse compilation unit header.
  Dwarf_Half version = get_unaligned(entry, Dwarf_Half);
  entry += sizeof(Dwarf_Half);
  assert(version == 4 || version == 2);
  8041601e18:	48 b9 2e d0 60 41 80 	movabs $0x804160d02e,%rcx
  8041601e1f:	00 00 00 
  8041601e22:	48 ba d9 cf 60 41 80 	movabs $0x804160cfd9,%rdx
  8041601e29:	00 00 00 
  8041601e2c:	be 9b 01 00 00       	mov    $0x19b,%esi
  8041601e31:	48 bf ee cf 60 41 80 	movabs $0x804160cfee,%rdi
  8041601e38:	00 00 00 
  8041601e3b:	b8 00 00 00 00       	mov    $0x0,%eax
  8041601e40:	49 b8 5a 02 60 41 80 	movabs $0x804160025a,%r8
  8041601e47:	00 00 00 
  8041601e4a:	41 ff d0             	callq  *%r8
  Dwarf_Off abbrev_offset = get_unaligned(entry, uint32_t);
  entry += count;
  Dwarf_Small address_size = get_unaligned(entry++, Dwarf_Small);
  assert(address_size == 8);
  8041601e4d:	48 b9 fb cf 60 41 80 	movabs $0x804160cffb,%rcx
  8041601e54:	00 00 00 
  8041601e57:	48 ba d9 cf 60 41 80 	movabs $0x804160cfd9,%rdx
  8041601e5e:	00 00 00 
  8041601e61:	be 9f 01 00 00       	mov    $0x19f,%esi
  8041601e66:	48 bf ee cf 60 41 80 	movabs $0x804160cfee,%rdi
  8041601e6d:	00 00 00 
  8041601e70:	b8 00 00 00 00       	mov    $0x0,%eax
  8041601e75:	49 b8 5a 02 60 41 80 	movabs $0x804160025a,%r8
  8041601e7c:	00 00 00 
  8041601e7f:	41 ff d0             	callq  *%r8

  // Read abbreviation code
  unsigned abbrev_code = 0;
  count                = dwarf_read_uleb128(entry, &abbrev_code);
  assert(abbrev_code != 0);
  8041601e82:	48 b9 4b d0 60 41 80 	movabs $0x804160d04b,%rcx
  8041601e89:	00 00 00 
  8041601e8c:	48 ba d9 cf 60 41 80 	movabs $0x804160cfd9,%rdx
  8041601e93:	00 00 00 
  8041601e96:	be a4 01 00 00       	mov    $0x1a4,%esi
  8041601e9b:	48 bf ee cf 60 41 80 	movabs $0x804160cfee,%rdi
  8041601ea2:	00 00 00 
  8041601ea5:	b8 00 00 00 00       	mov    $0x0,%eax
  8041601eaa:	49 b8 5a 02 60 41 80 	movabs $0x804160025a,%r8
  8041601eb1:	00 00 00 
  8041601eb4:	41 ff d0             	callq  *%r8
  // Read abbreviations table
  const void *abbrev_entry   = addrs->abbrev_begin + abbrev_offset;
  unsigned table_abbrev_code = 0;
  count                      = dwarf_read_uleb128(abbrev_entry, &table_abbrev_code);
  abbrev_entry += count;
  assert(table_abbrev_code == abbrev_code);
  8041601eb7:	48 b9 80 d1 60 41 80 	movabs $0x804160d180,%rcx
  8041601ebe:	00 00 00 
  8041601ec1:	48 ba d9 cf 60 41 80 	movabs $0x804160cfd9,%rdx
  8041601ec8:	00 00 00 
  8041601ecb:	be ac 01 00 00       	mov    $0x1ac,%esi
  8041601ed0:	48 bf ee cf 60 41 80 	movabs $0x804160cfee,%rdi
  8041601ed7:	00 00 00 
  8041601eda:	b8 00 00 00 00       	mov    $0x0,%eax
  8041601edf:	49 b8 5a 02 60 41 80 	movabs $0x804160025a,%r8
  8041601ee6:	00 00 00 
  8041601ee9:	41 ff d0             	callq  *%r8
  unsigned tag = 0;
  count        = dwarf_read_uleb128(abbrev_entry, &tag);
  abbrev_entry += count;
  assert(tag == DW_TAG_compile_unit);
  8041601eec:	48 b9 5c d0 60 41 80 	movabs $0x804160d05c,%rcx
  8041601ef3:	00 00 00 
  8041601ef6:	48 ba d9 cf 60 41 80 	movabs $0x804160cfd9,%rdx
  8041601efd:	00 00 00 
  8041601f00:	be b0 01 00 00       	mov    $0x1b0,%esi
  8041601f05:	48 bf ee cf 60 41 80 	movabs $0x804160cfee,%rdi
  8041601f0c:	00 00 00 
  8041601f0f:	b8 00 00 00 00       	mov    $0x0,%eax
  8041601f14:	49 b8 5a 02 60 41 80 	movabs $0x804160025a,%r8
  8041601f1b:	00 00 00 
  8041601f1e:	41 ff d0             	callq  *%r8
    count = dwarf_read_uleb128(abbrev_entry, &name);
    abbrev_entry += count;
    count = dwarf_read_uleb128(abbrev_entry, &form);
    abbrev_entry += count;
    if (name == DW_AT_name) {
      if (form == DW_FORM_strp) {
  8041601f21:	41 83 fd 0e          	cmp    $0xe,%r13d
  8041601f25:	0f 84 d8 00 00 00    	je     8041602003 <file_name_by_info+0x294>
                  offset,
              (char **)buf);
#pragma GCC diagnostic pop
        }
      } else {
        count = dwarf_read_abbrev_entry(
  8041601f2b:	41 b8 08 00 00 00    	mov    $0x8,%r8d
  8041601f31:	8b 4d b4             	mov    -0x4c(%rbp),%ecx
  8041601f34:	48 8b 55 b8          	mov    -0x48(%rbp),%rdx
  8041601f38:	44 89 ee             	mov    %r13d,%esi
  8041601f3b:	4c 89 f7             	mov    %r14,%rdi
  8041601f3e:	41 ff d7             	callq  *%r15
  8041601f41:	41 89 c4             	mov    %eax,%r12d
                                      address_size);
    } else {
      count = dwarf_read_abbrev_entry(entry, form, NULL, 0,
                                      address_size);
    }
    entry += count;
  8041601f44:	49 63 c4             	movslq %r12d,%rax
  8041601f47:	49 01 c6             	add    %rax,%r14
  result = 0;
  8041601f4a:	48 89 da             	mov    %rbx,%rdx
  count  = 0;
  8041601f4d:	bf 00 00 00 00       	mov    $0x0,%edi
  shift  = 0;
  8041601f52:	b9 00 00 00 00       	mov    $0x0,%ecx
  result = 0;
  8041601f57:	41 bc 00 00 00 00    	mov    $0x0,%r12d
    byte = *addr;
  8041601f5d:	0f b6 32             	movzbl (%rdx),%esi
    addr++;
  8041601f60:	48 83 c2 01          	add    $0x1,%rdx
    count++;
  8041601f64:	83 c7 01             	add    $0x1,%edi
    result |= (byte & 0x7f) << shift;
  8041601f67:	89 f0                	mov    %esi,%eax
  8041601f69:	83 e0 7f             	and    $0x7f,%eax
  8041601f6c:	d3 e0                	shl    %cl,%eax
  8041601f6e:	41 09 c4             	or     %eax,%r12d
    shift += 7;
  8041601f71:	83 c1 07             	add    $0x7,%ecx
    if (!(byte & 0x80))
  8041601f74:	40 84 f6             	test   %sil,%sil
  8041601f77:	78 e4                	js     8041601f5d <file_name_by_info+0x1ee>
  return count;
  8041601f79:	48 63 ff             	movslq %edi,%rdi
    abbrev_entry += count;
  8041601f7c:	48 01 fb             	add    %rdi,%rbx
  8041601f7f:	48 89 da             	mov    %rbx,%rdx
  count  = 0;
  8041601f82:	bf 00 00 00 00       	mov    $0x0,%edi
  shift  = 0;
  8041601f87:	b9 00 00 00 00       	mov    $0x0,%ecx
  result = 0;
  8041601f8c:	41 bd 00 00 00 00    	mov    $0x0,%r13d
    byte = *addr;
  8041601f92:	0f b6 32             	movzbl (%rdx),%esi
    addr++;
  8041601f95:	48 83 c2 01          	add    $0x1,%rdx
    count++;
  8041601f99:	83 c7 01             	add    $0x1,%edi
    result |= (byte & 0x7f) << shift;
  8041601f9c:	89 f0                	mov    %esi,%eax
  8041601f9e:	83 e0 7f             	and    $0x7f,%eax
  8041601fa1:	d3 e0                	shl    %cl,%eax
  8041601fa3:	41 09 c5             	or     %eax,%r13d
    shift += 7;
  8041601fa6:	83 c1 07             	add    $0x7,%ecx
    if (!(byte & 0x80))
  8041601fa9:	40 84 f6             	test   %sil,%sil
  8041601fac:	78 e4                	js     8041601f92 <file_name_by_info+0x223>
  return count;
  8041601fae:	48 63 ff             	movslq %edi,%rdi
    abbrev_entry += count;
  8041601fb1:	48 01 fb             	add    %rdi,%rbx
    if (name == DW_AT_name) {
  8041601fb4:	41 83 fc 03          	cmp    $0x3,%r12d
  8041601fb8:	0f 84 63 ff ff ff    	je     8041601f21 <file_name_by_info+0x1b2>
    } else if (name == DW_AT_stmt_list) {
  8041601fbe:	41 83 fc 10          	cmp    $0x10,%r12d
  8041601fc2:	0f 84 a1 00 00 00    	je     8041602069 <file_name_by_info+0x2fa>
      count = dwarf_read_abbrev_entry(entry, form, NULL, 0,
  8041601fc8:	41 b8 08 00 00 00    	mov    $0x8,%r8d
  8041601fce:	b9 00 00 00 00       	mov    $0x0,%ecx
  8041601fd3:	ba 00 00 00 00       	mov    $0x0,%edx
  8041601fd8:	44 89 ee             	mov    %r13d,%esi
  8041601fdb:	4c 89 f7             	mov    %r14,%rdi
  8041601fde:	41 ff d7             	callq  *%r15
    entry += count;
  8041601fe1:	48 98                	cltq   
  8041601fe3:	49 01 c6             	add    %rax,%r14
  } while (name != 0 || form != 0);
  8041601fe6:	45 09 e5             	or     %r12d,%r13d
  8041601fe9:	0f 85 5b ff ff ff    	jne    8041601f4a <file_name_by_info+0x1db>

  return 0;
  8041601fef:	b8 00 00 00 00       	mov    $0x0,%eax
}
  8041601ff4:	48 83 c4 38          	add    $0x38,%rsp
  8041601ff8:	5b                   	pop    %rbx
  8041601ff9:	41 5c                	pop    %r12
  8041601ffb:	41 5d                	pop    %r13
  8041601ffd:	41 5e                	pop    %r14
  8041601fff:	41 5f                	pop    %r15
  8041602001:	5d                   	pop    %rbp
  8041602002:	c3                   	retq   
        unsigned long offset = 0;
  8041602003:	48 c7 45 c0 00 00 00 	movq   $0x0,-0x40(%rbp)
  804160200a:	00 
        count                = dwarf_read_abbrev_entry(
  804160200b:	41 b8 08 00 00 00    	mov    $0x8,%r8d
  8041602011:	b9 08 00 00 00       	mov    $0x8,%ecx
  8041602016:	48 8d 55 c0          	lea    -0x40(%rbp),%rdx
  804160201a:	be 0e 00 00 00       	mov    $0xe,%esi
  804160201f:	4c 89 f7             	mov    %r14,%rdi
  8041602022:	41 ff d7             	callq  *%r15
  8041602025:	41 89 c4             	mov    %eax,%r12d
        if (buf && buflen >= sizeof(const char **)) {
  8041602028:	48 8b 7d b8          	mov    -0x48(%rbp),%rdi
  804160202c:	48 85 ff             	test   %rdi,%rdi
  804160202f:	0f 84 0f ff ff ff    	je     8041601f44 <file_name_by_info+0x1d5>
  8041602035:	83 7d b4 07          	cmpl   $0x7,-0x4c(%rbp)
  8041602039:	0f 86 05 ff ff ff    	jbe    8041601f44 <file_name_by_info+0x1d5>
          put_unaligned(
  804160203f:	48 8b 45 c0          	mov    -0x40(%rbp),%rax
  8041602043:	48 8b 4d a0          	mov    -0x60(%rbp),%rcx
  8041602047:	48 03 41 40          	add    0x40(%rcx),%rax
  804160204b:	48 89 45 c8          	mov    %rax,-0x38(%rbp)
  804160204f:	ba 08 00 00 00       	mov    $0x8,%edx
  8041602054:	48 8d 75 c8          	lea    -0x38(%rbp),%rsi
  8041602058:	48 b8 64 c5 60 41 80 	movabs $0x804160c564,%rax
  804160205f:	00 00 00 
  8041602062:	ff d0                	callq  *%rax
  8041602064:	e9 db fe ff ff       	jmpq   8041601f44 <file_name_by_info+0x1d5>
      count = dwarf_read_abbrev_entry(entry, form, line_off,
  8041602069:	41 b8 08 00 00 00    	mov    $0x8,%r8d
  804160206f:	b9 08 00 00 00       	mov    $0x8,%ecx
  8041602074:	48 8b 55 a8          	mov    -0x58(%rbp),%rdx
  8041602078:	44 89 ee             	mov    %r13d,%esi
  804160207b:	4c 89 f7             	mov    %r14,%rdi
  804160207e:	41 ff d7             	callq  *%r15
  8041602081:	41 89 c4             	mov    %eax,%r12d
  8041602084:	e9 bb fe ff ff       	jmpq   8041601f44 <file_name_by_info+0x1d5>
    return -E_INVAL;
  8041602089:	b8 fd ff ff ff       	mov    $0xfffffffd,%eax
  804160208e:	e9 61 ff ff ff       	jmpq   8041601ff4 <file_name_by_info+0x285>
  count       = 4;
  8041602093:	41 bd 04 00 00 00    	mov    $0x4,%r13d
    entry += count;
  8041602099:	4d 63 ed             	movslq %r13d,%r13
  804160209c:	4c 01 eb             	add    %r13,%rbx
  Dwarf_Half version = get_unaligned(entry, Dwarf_Half);
  804160209f:	ba 02 00 00 00       	mov    $0x2,%edx
  80416020a4:	48 89 de             	mov    %rbx,%rsi
  80416020a7:	48 8d 7d c8          	lea    -0x38(%rbp),%rdi
  80416020ab:	48 b8 64 c5 60 41 80 	movabs $0x804160c564,%rax
  80416020b2:	00 00 00 
  80416020b5:	ff d0                	callq  *%rax
  entry += sizeof(Dwarf_Half);
  80416020b7:	48 83 c3 02          	add    $0x2,%rbx
  assert(version == 4 || version == 2);
  80416020bb:	0f b7 45 c8          	movzwl -0x38(%rbp),%eax
  80416020bf:	83 e8 02             	sub    $0x2,%eax
  80416020c2:	66 a9 fd ff          	test   $0xfffd,%ax
  80416020c6:	0f 85 4c fd ff ff    	jne    8041601e18 <file_name_by_info+0xa9>
  Dwarf_Off abbrev_offset = get_unaligned(entry, uint32_t);
  80416020cc:	ba 04 00 00 00       	mov    $0x4,%edx
  80416020d1:	48 89 de             	mov    %rbx,%rsi
  80416020d4:	48 8d 7d c8          	lea    -0x38(%rbp),%rdi
  80416020d8:	49 bf 64 c5 60 41 80 	movabs $0x804160c564,%r15
  80416020df:	00 00 00 
  80416020e2:	41 ff d7             	callq  *%r15
  80416020e5:	44 8b 65 c8          	mov    -0x38(%rbp),%r12d
  entry += count;
  80416020e9:	4a 8d 34 2b          	lea    (%rbx,%r13,1),%rsi
  Dwarf_Small address_size = get_unaligned(entry++, Dwarf_Small);
  80416020ed:	4c 8d 76 01          	lea    0x1(%rsi),%r14
  80416020f1:	ba 01 00 00 00       	mov    $0x1,%edx
  80416020f6:	48 8d 7d c8          	lea    -0x38(%rbp),%rdi
  80416020fa:	41 ff d7             	callq  *%r15
  assert(address_size == 8);
  80416020fd:	80 7d c8 08          	cmpb   $0x8,-0x38(%rbp)
  8041602101:	0f 85 46 fd ff ff    	jne    8041601e4d <file_name_by_info+0xde>
  8041602107:	4c 89 f2             	mov    %r14,%rdx
  count  = 0;
  804160210a:	bf 00 00 00 00       	mov    $0x0,%edi
  shift  = 0;
  804160210f:	b9 00 00 00 00       	mov    $0x0,%ecx
  result = 0;
  8041602114:	41 b8 00 00 00 00    	mov    $0x0,%r8d
    byte = *addr;
  804160211a:	0f b6 32             	movzbl (%rdx),%esi
    addr++;
  804160211d:	48 83 c2 01          	add    $0x1,%rdx
    count++;
  8041602121:	83 c7 01             	add    $0x1,%edi
    result |= (byte & 0x7f) << shift;
  8041602124:	89 f0                	mov    %esi,%eax
  8041602126:	83 e0 7f             	and    $0x7f,%eax
  8041602129:	d3 e0                	shl    %cl,%eax
  804160212b:	41 09 c0             	or     %eax,%r8d
    shift += 7;
  804160212e:	83 c1 07             	add    $0x7,%ecx
    if (!(byte & 0x80))
  8041602131:	40 84 f6             	test   %sil,%sil
  8041602134:	78 e4                	js     804160211a <file_name_by_info+0x3ab>
  return count;
  8041602136:	48 63 ff             	movslq %edi,%rdi
  assert(abbrev_code != 0);
  8041602139:	45 85 c0             	test   %r8d,%r8d
  804160213c:	0f 84 40 fd ff ff    	je     8041601e82 <file_name_by_info+0x113>
  entry += count;
  8041602142:	49 01 fe             	add    %rdi,%r14
  const void *abbrev_entry   = addrs->abbrev_begin + abbrev_offset;
  8041602145:	48 8b 45 a0          	mov    -0x60(%rbp),%rax
  8041602149:	4c 03 20             	add    (%rax),%r12
  804160214c:	4c 89 e2             	mov    %r12,%rdx
  count  = 0;
  804160214f:	bf 00 00 00 00       	mov    $0x0,%edi
  shift  = 0;
  8041602154:	b9 00 00 00 00       	mov    $0x0,%ecx
  result = 0;
  8041602159:	41 b9 00 00 00 00    	mov    $0x0,%r9d
    byte = *addr;
  804160215f:	0f b6 32             	movzbl (%rdx),%esi
    addr++;
  8041602162:	48 83 c2 01          	add    $0x1,%rdx
    count++;
  8041602166:	83 c7 01             	add    $0x1,%edi
    result |= (byte & 0x7f) << shift;
  8041602169:	89 f0                	mov    %esi,%eax
  804160216b:	83 e0 7f             	and    $0x7f,%eax
  804160216e:	d3 e0                	shl    %cl,%eax
  8041602170:	41 09 c1             	or     %eax,%r9d
    shift += 7;
  8041602173:	83 c1 07             	add    $0x7,%ecx
    if (!(byte & 0x80))
  8041602176:	40 84 f6             	test   %sil,%sil
  8041602179:	78 e4                	js     804160215f <file_name_by_info+0x3f0>
  return count;
  804160217b:	48 63 ff             	movslq %edi,%rdi
  abbrev_entry += count;
  804160217e:	49 01 fc             	add    %rdi,%r12
  assert(table_abbrev_code == abbrev_code);
  8041602181:	45 39 c8             	cmp    %r9d,%r8d
  8041602184:	0f 85 2d fd ff ff    	jne    8041601eb7 <file_name_by_info+0x148>
  804160218a:	4c 89 e2             	mov    %r12,%rdx
  count  = 0;
  804160218d:	bf 00 00 00 00       	mov    $0x0,%edi
  shift  = 0;
  8041602192:	b9 00 00 00 00       	mov    $0x0,%ecx
  result = 0;
  8041602197:	41 b8 00 00 00 00    	mov    $0x0,%r8d
    byte = *addr;
  804160219d:	0f b6 32             	movzbl (%rdx),%esi
    addr++;
  80416021a0:	48 83 c2 01          	add    $0x1,%rdx
    count++;
  80416021a4:	83 c7 01             	add    $0x1,%edi
    result |= (byte & 0x7f) << shift;
  80416021a7:	89 f0                	mov    %esi,%eax
  80416021a9:	83 e0 7f             	and    $0x7f,%eax
  80416021ac:	d3 e0                	shl    %cl,%eax
  80416021ae:	41 09 c0             	or     %eax,%r8d
    shift += 7;
  80416021b1:	83 c1 07             	add    $0x7,%ecx
    if (!(byte & 0x80))
  80416021b4:	40 84 f6             	test   %sil,%sil
  80416021b7:	78 e4                	js     804160219d <file_name_by_info+0x42e>
  return count;
  80416021b9:	48 63 ff             	movslq %edi,%rdi
  assert(tag == DW_TAG_compile_unit);
  80416021bc:	41 83 f8 11          	cmp    $0x11,%r8d
  80416021c0:	0f 85 26 fd ff ff    	jne    8041601eec <file_name_by_info+0x17d>
  abbrev_entry++;
  80416021c6:	49 8d 5c 3c 01       	lea    0x1(%r12,%rdi,1),%rbx
      count = dwarf_read_abbrev_entry(entry, form, NULL, 0,
  80416021cb:	49 bf 3a 0d 60 41 80 	movabs $0x8041600d3a,%r15
  80416021d2:	00 00 00 
  80416021d5:	e9 70 fd ff ff       	jmpq   8041601f4a <file_name_by_info+0x1db>

00000080416021da <function_by_info>:

int
function_by_info(const struct Dwarf_Addrs *addrs, uintptr_t p,
                 Dwarf_Off cu_offset, char *buf, int buflen,
                 uintptr_t *offset) {
  80416021da:	55                   	push   %rbp
  80416021db:	48 89 e5             	mov    %rsp,%rbp
  80416021de:	41 57                	push   %r15
  80416021e0:	41 56                	push   %r14
  80416021e2:	41 55                	push   %r13
  80416021e4:	41 54                	push   %r12
  80416021e6:	53                   	push   %rbx
  80416021e7:	48 83 ec 68          	sub    $0x68,%rsp
  80416021eb:	48 89 7d 98          	mov    %rdi,-0x68(%rbp)
  80416021ef:	48 89 b5 78 ff ff ff 	mov    %rsi,-0x88(%rbp)
  80416021f6:	48 89 4d 88          	mov    %rcx,-0x78(%rbp)
  80416021fa:	44 89 45 a0          	mov    %r8d,-0x60(%rbp)
  80416021fe:	4c 89 8d 70 ff ff ff 	mov    %r9,-0x90(%rbp)
  const void *entry = addrs->info_begin + cu_offset;
  8041602205:	48 89 d3             	mov    %rdx,%rbx
  8041602208:	48 03 5f 20          	add    0x20(%rdi),%rbx
  initial_len = get_unaligned(addr, uint32_t);
  804160220c:	ba 04 00 00 00       	mov    $0x4,%edx
  8041602211:	48 89 de             	mov    %rbx,%rsi
  8041602214:	48 8d 7d c8          	lea    -0x38(%rbp),%rdi
  8041602218:	48 b8 64 c5 60 41 80 	movabs $0x804160c564,%rax
  804160221f:	00 00 00 
  8041602222:	ff d0                	callq  *%rax
  8041602224:	8b 45 c8             	mov    -0x38(%rbp),%eax
  if (initial_len >= DW_EXT_LO && initial_len <= DW_EXT_HI) {
  8041602227:	83 f8 ef             	cmp    $0xffffffef,%eax
  804160222a:	76 59                	jbe    8041602285 <function_by_info+0xab>
    if (initial_len == DW_EXT_DWARF64) {
  804160222c:	83 f8 ff             	cmp    $0xffffffff,%eax
  804160222f:	74 2f                	je     8041602260 <function_by_info+0x86>
      cprintf("Unknown DWARF extension\n");
  8041602231:	48 bf c0 cf 60 41 80 	movabs $0x804160cfc0,%rdi
  8041602238:	00 00 00 
  804160223b:	b8 00 00 00 00       	mov    $0x0,%eax
  8041602240:	48 ba 0d 92 60 41 80 	movabs $0x804160920d,%rdx
  8041602247:	00 00 00 
  804160224a:	ff d2                	callq  *%rdx
  int count         = 0;
  unsigned long len = 0;
  count             = dwarf_entry_len(entry, &len);
  if (count == 0) {
    return -E_BAD_DWARF;
  804160224c:	b8 fa ff ff ff       	mov    $0xfffffffa,%eax
        entry += count;
      } while (name != 0 || form != 0);
    }
  }
  return 0;
}
  8041602251:	48 83 c4 68          	add    $0x68,%rsp
  8041602255:	5b                   	pop    %rbx
  8041602256:	41 5c                	pop    %r12
  8041602258:	41 5d                	pop    %r13
  804160225a:	41 5e                	pop    %r14
  804160225c:	41 5f                	pop    %r15
  804160225e:	5d                   	pop    %rbp
  804160225f:	c3                   	retq   
      *len  = get_unaligned((uint64_t *)addr + 4, uint64_t);
  8041602260:	48 8d 73 20          	lea    0x20(%rbx),%rsi
  8041602264:	ba 08 00 00 00       	mov    $0x8,%edx
  8041602269:	48 8d 7d c8          	lea    -0x38(%rbp),%rdi
  804160226d:	48 b8 64 c5 60 41 80 	movabs $0x804160c564,%rax
  8041602274:	00 00 00 
  8041602277:	ff d0                	callq  *%rax
  8041602279:	48 8b 45 c8          	mov    -0x38(%rbp),%rax
      count = 12;
  804160227d:	41 be 0c 00 00 00    	mov    $0xc,%r14d
  8041602283:	eb 08                	jmp    804160228d <function_by_info+0xb3>
    *len = initial_len;
  8041602285:	89 c0                	mov    %eax,%eax
  count       = 4;
  8041602287:	41 be 04 00 00 00    	mov    $0x4,%r14d
  entry += count;
  804160228d:	4d 63 f6             	movslq %r14d,%r14
  8041602290:	4c 01 f3             	add    %r14,%rbx
  const void *entry_end = entry + len;
  8041602293:	48 01 d8             	add    %rbx,%rax
  8041602296:	48 89 45 90          	mov    %rax,-0x70(%rbp)
  Dwarf_Half version = get_unaligned(entry, Dwarf_Half);
  804160229a:	ba 02 00 00 00       	mov    $0x2,%edx
  804160229f:	48 89 de             	mov    %rbx,%rsi
  80416022a2:	48 8d 7d c8          	lea    -0x38(%rbp),%rdi
  80416022a6:	48 b8 64 c5 60 41 80 	movabs $0x804160c564,%rax
  80416022ad:	00 00 00 
  80416022b0:	ff d0                	callq  *%rax
  entry += sizeof(Dwarf_Half);
  80416022b2:	48 83 c3 02          	add    $0x2,%rbx
  assert(version == 4 || version == 2);
  80416022b6:	0f b7 45 c8          	movzwl -0x38(%rbp),%eax
  80416022ba:	83 e8 02             	sub    $0x2,%eax
  80416022bd:	66 a9 fd ff          	test   $0xfffd,%ax
  80416022c1:	75 51                	jne    8041602314 <function_by_info+0x13a>
  Dwarf_Off abbrev_offset = get_unaligned(entry, uint32_t);
  80416022c3:	ba 04 00 00 00       	mov    $0x4,%edx
  80416022c8:	48 89 de             	mov    %rbx,%rsi
  80416022cb:	48 8d 7d c8          	lea    -0x38(%rbp),%rdi
  80416022cf:	49 bc 64 c5 60 41 80 	movabs $0x804160c564,%r12
  80416022d6:	00 00 00 
  80416022d9:	41 ff d4             	callq  *%r12
  80416022dc:	44 8b 6d c8          	mov    -0x38(%rbp),%r13d
  entry += count;
  80416022e0:	4a 8d 34 33          	lea    (%rbx,%r14,1),%rsi
  Dwarf_Small address_size = get_unaligned(entry++, Dwarf_Small);
  80416022e4:	4c 8d 76 01          	lea    0x1(%rsi),%r14
  80416022e8:	ba 01 00 00 00       	mov    $0x1,%edx
  80416022ed:	48 8d 7d c8          	lea    -0x38(%rbp),%rdi
  80416022f1:	41 ff d4             	callq  *%r12
  assert(address_size == 8);
  80416022f4:	80 7d c8 08          	cmpb   $0x8,-0x38(%rbp)
  80416022f8:	75 4f                	jne    8041602349 <function_by_info+0x16f>
  const void *abbrev_entry      = addrs->abbrev_begin + abbrev_offset;
  80416022fa:	48 8b 45 98          	mov    -0x68(%rbp),%rax
  80416022fe:	4c 03 28             	add    (%rax),%r13
  8041602301:	4c 89 6d 80          	mov    %r13,-0x80(%rbp)
        count = dwarf_read_abbrev_entry(
  8041602305:	49 bf 3a 0d 60 41 80 	movabs $0x8041600d3a,%r15
  804160230c:	00 00 00 
  while (entry < entry_end) {
  804160230f:	e9 07 02 00 00       	jmpq   804160251b <function_by_info+0x341>
  assert(version == 4 || version == 2);
  8041602314:	48 b9 2e d0 60 41 80 	movabs $0x804160d02e,%rcx
  804160231b:	00 00 00 
  804160231e:	48 ba d9 cf 60 41 80 	movabs $0x804160cfd9,%rdx
  8041602325:	00 00 00 
  8041602328:	be e9 01 00 00       	mov    $0x1e9,%esi
  804160232d:	48 bf ee cf 60 41 80 	movabs $0x804160cfee,%rdi
  8041602334:	00 00 00 
  8041602337:	b8 00 00 00 00       	mov    $0x0,%eax
  804160233c:	49 b8 5a 02 60 41 80 	movabs $0x804160025a,%r8
  8041602343:	00 00 00 
  8041602346:	41 ff d0             	callq  *%r8
  assert(address_size == 8);
  8041602349:	48 b9 fb cf 60 41 80 	movabs $0x804160cffb,%rcx
  8041602350:	00 00 00 
  8041602353:	48 ba d9 cf 60 41 80 	movabs $0x804160cfd9,%rdx
  804160235a:	00 00 00 
  804160235d:	be ed 01 00 00       	mov    $0x1ed,%esi
  8041602362:	48 bf ee cf 60 41 80 	movabs $0x804160cfee,%rdi
  8041602369:	00 00 00 
  804160236c:	b8 00 00 00 00       	mov    $0x0,%eax
  8041602371:	49 b8 5a 02 60 41 80 	movabs $0x804160025a,%r8
  8041602378:	00 00 00 
  804160237b:	41 ff d0             	callq  *%r8
           addrs->abbrev_end) { // unsafe needs to be replaced
  804160237e:	48 8b 45 98          	mov    -0x68(%rbp),%rax
  8041602382:	4c 8b 50 08          	mov    0x8(%rax),%r10
    curr_abbrev_entry = abbrev_entry;
  8041602386:	48 8b 5d 80          	mov    -0x80(%rbp),%rbx
    unsigned name = 0, form = 0, tag = 0;
  804160238a:	41 b8 00 00 00 00    	mov    $0x0,%r8d
    while ((const unsigned char *)curr_abbrev_entry <
  8041602390:	49 39 da             	cmp    %rbx,%r10
  8041602393:	0f 86 e7 00 00 00    	jbe    8041602480 <function_by_info+0x2a6>
  8041602399:	48 89 da             	mov    %rbx,%rdx
  count  = 0;
  804160239c:	41 b8 00 00 00 00    	mov    $0x0,%r8d
  shift  = 0;
  80416023a2:	b9 00 00 00 00       	mov    $0x0,%ecx
  result = 0;
  80416023a7:	be 00 00 00 00       	mov    $0x0,%esi
    byte = *addr;
  80416023ac:	0f b6 3a             	movzbl (%rdx),%edi
    addr++;
  80416023af:	48 83 c2 01          	add    $0x1,%rdx
    count++;
  80416023b3:	41 83 c0 01          	add    $0x1,%r8d
    result |= (byte & 0x7f) << shift;
  80416023b7:	89 f8                	mov    %edi,%eax
  80416023b9:	83 e0 7f             	and    $0x7f,%eax
  80416023bc:	d3 e0                	shl    %cl,%eax
  80416023be:	09 c6                	or     %eax,%esi
    shift += 7;
  80416023c0:	83 c1 07             	add    $0x7,%ecx
    if (!(byte & 0x80))
  80416023c3:	40 84 ff             	test   %dil,%dil
  80416023c6:	78 e4                	js     80416023ac <function_by_info+0x1d2>
  return count;
  80416023c8:	4d 63 c0             	movslq %r8d,%r8
      curr_abbrev_entry += count;
  80416023cb:	4c 01 c3             	add    %r8,%rbx
  80416023ce:	48 89 da             	mov    %rbx,%rdx
  count  = 0;
  80416023d1:	41 bb 00 00 00 00    	mov    $0x0,%r11d
  shift  = 0;
  80416023d7:	b9 00 00 00 00       	mov    $0x0,%ecx
  result = 0;
  80416023dc:	41 b8 00 00 00 00    	mov    $0x0,%r8d
    byte = *addr;
  80416023e2:	0f b6 3a             	movzbl (%rdx),%edi
    addr++;
  80416023e5:	48 83 c2 01          	add    $0x1,%rdx
    count++;
  80416023e9:	41 83 c3 01          	add    $0x1,%r11d
    result |= (byte & 0x7f) << shift;
  80416023ed:	89 f8                	mov    %edi,%eax
  80416023ef:	83 e0 7f             	and    $0x7f,%eax
  80416023f2:	d3 e0                	shl    %cl,%eax
  80416023f4:	41 09 c0             	or     %eax,%r8d
    shift += 7;
  80416023f7:	83 c1 07             	add    $0x7,%ecx
    if (!(byte & 0x80))
  80416023fa:	40 84 ff             	test   %dil,%dil
  80416023fd:	78 e3                	js     80416023e2 <function_by_info+0x208>
  return count;
  80416023ff:	4d 63 db             	movslq %r11d,%r11
      curr_abbrev_entry++;
  8041602402:	4a 8d 5c 1b 01       	lea    0x1(%rbx,%r11,1),%rbx
      if (table_abbrev_code == abbrev_code) {
  8041602407:	41 39 f1             	cmp    %esi,%r9d
  804160240a:	74 74                	je     8041602480 <function_by_info+0x2a6>
  result = 0;
  804160240c:	48 89 da             	mov    %rbx,%rdx
  count  = 0;
  804160240f:	bf 00 00 00 00       	mov    $0x0,%edi
  shift  = 0;
  8041602414:	b9 00 00 00 00       	mov    $0x0,%ecx
  result = 0;
  8041602419:	41 bb 00 00 00 00    	mov    $0x0,%r11d
    byte = *addr;
  804160241f:	0f b6 32             	movzbl (%rdx),%esi
    addr++;
  8041602422:	48 83 c2 01          	add    $0x1,%rdx
    count++;
  8041602426:	83 c7 01             	add    $0x1,%edi
    result |= (byte & 0x7f) << shift;
  8041602429:	89 f0                	mov    %esi,%eax
  804160242b:	83 e0 7f             	and    $0x7f,%eax
  804160242e:	d3 e0                	shl    %cl,%eax
  8041602430:	41 09 c3             	or     %eax,%r11d
    shift += 7;
  8041602433:	83 c1 07             	add    $0x7,%ecx
    if (!(byte & 0x80))
  8041602436:	40 84 f6             	test   %sil,%sil
  8041602439:	78 e4                	js     804160241f <function_by_info+0x245>
  return count;
  804160243b:	48 63 ff             	movslq %edi,%rdi
        curr_abbrev_entry += count;
  804160243e:	48 01 fb             	add    %rdi,%rbx
  8041602441:	48 89 da             	mov    %rbx,%rdx
  count  = 0;
  8041602444:	bf 00 00 00 00       	mov    $0x0,%edi
  shift  = 0;
  8041602449:	b9 00 00 00 00       	mov    $0x0,%ecx
  result = 0;
  804160244e:	41 bc 00 00 00 00    	mov    $0x0,%r12d
    byte = *addr;
  8041602454:	0f b6 32             	movzbl (%rdx),%esi
    addr++;
  8041602457:	48 83 c2 01          	add    $0x1,%rdx
    count++;
  804160245b:	83 c7 01             	add    $0x1,%edi
    result |= (byte & 0x7f) << shift;
  804160245e:	89 f0                	mov    %esi,%eax
  8041602460:	83 e0 7f             	and    $0x7f,%eax
  8041602463:	d3 e0                	shl    %cl,%eax
  8041602465:	41 09 c4             	or     %eax,%r12d
    shift += 7;
  8041602468:	83 c1 07             	add    $0x7,%ecx
    if (!(byte & 0x80))
  804160246b:	40 84 f6             	test   %sil,%sil
  804160246e:	78 e4                	js     8041602454 <function_by_info+0x27a>
  return count;
  8041602470:	48 63 ff             	movslq %edi,%rdi
        curr_abbrev_entry += count;
  8041602473:	48 01 fb             	add    %rdi,%rbx
      } while (name != 0 || form != 0);
  8041602476:	45 09 dc             	or     %r11d,%r12d
  8041602479:	75 91                	jne    804160240c <function_by_info+0x232>
  804160247b:	e9 10 ff ff ff       	jmpq   8041602390 <function_by_info+0x1b6>
    if (tag == DW_TAG_subprogram) {
  8041602480:	41 83 f8 2e          	cmp    $0x2e,%r8d
  8041602484:	0f 84 e9 00 00 00    	je     8041602573 <function_by_info+0x399>
            fn_name_entry = entry;
  804160248a:	48 89 da             	mov    %rbx,%rdx
  count  = 0;
  804160248d:	bf 00 00 00 00       	mov    $0x0,%edi
  shift  = 0;
  8041602492:	b9 00 00 00 00       	mov    $0x0,%ecx
  result = 0;
  8041602497:	41 bd 00 00 00 00    	mov    $0x0,%r13d
    byte = *addr;
  804160249d:	0f b6 32             	movzbl (%rdx),%esi
    addr++;
  80416024a0:	48 83 c2 01          	add    $0x1,%rdx
    count++;
  80416024a4:	83 c7 01             	add    $0x1,%edi
    result |= (byte & 0x7f) << shift;
  80416024a7:	89 f0                	mov    %esi,%eax
  80416024a9:	83 e0 7f             	and    $0x7f,%eax
  80416024ac:	d3 e0                	shl    %cl,%eax
  80416024ae:	41 09 c5             	or     %eax,%r13d
    shift += 7;
  80416024b1:	83 c1 07             	add    $0x7,%ecx
    if (!(byte & 0x80))
  80416024b4:	40 84 f6             	test   %sil,%sil
  80416024b7:	78 e4                	js     804160249d <function_by_info+0x2c3>
  return count;
  80416024b9:	48 63 ff             	movslq %edi,%rdi
        curr_abbrev_entry += count;
  80416024bc:	48 01 fb             	add    %rdi,%rbx
  80416024bf:	48 89 da             	mov    %rbx,%rdx
  count  = 0;
  80416024c2:	bf 00 00 00 00       	mov    $0x0,%edi
  shift  = 0;
  80416024c7:	b9 00 00 00 00       	mov    $0x0,%ecx
  result = 0;
  80416024cc:	41 bc 00 00 00 00    	mov    $0x0,%r12d
    byte = *addr;
  80416024d2:	0f b6 32             	movzbl (%rdx),%esi
    addr++;
  80416024d5:	48 83 c2 01          	add    $0x1,%rdx
    count++;
  80416024d9:	83 c7 01             	add    $0x1,%edi
    result |= (byte & 0x7f) << shift;
  80416024dc:	89 f0                	mov    %esi,%eax
  80416024de:	83 e0 7f             	and    $0x7f,%eax
  80416024e1:	d3 e0                	shl    %cl,%eax
  80416024e3:	41 09 c4             	or     %eax,%r12d
    shift += 7;
  80416024e6:	83 c1 07             	add    $0x7,%ecx
    if (!(byte & 0x80))
  80416024e9:	40 84 f6             	test   %sil,%sil
  80416024ec:	78 e4                	js     80416024d2 <function_by_info+0x2f8>
  return count;
  80416024ee:	48 63 ff             	movslq %edi,%rdi
        curr_abbrev_entry += count;
  80416024f1:	48 01 fb             	add    %rdi,%rbx
        count = dwarf_read_abbrev_entry(
  80416024f4:	41 b8 08 00 00 00    	mov    $0x8,%r8d
  80416024fa:	b9 00 00 00 00       	mov    $0x0,%ecx
  80416024ff:	ba 00 00 00 00       	mov    $0x0,%edx
  8041602504:	44 89 e6             	mov    %r12d,%esi
  8041602507:	4c 89 f7             	mov    %r14,%rdi
  804160250a:	41 ff d7             	callq  *%r15
        entry += count;
  804160250d:	48 98                	cltq   
  804160250f:	49 01 c6             	add    %rax,%r14
      } while (name != 0 || form != 0);
  8041602512:	45 09 ec             	or     %r13d,%r12d
  8041602515:	0f 85 6f ff ff ff    	jne    804160248a <function_by_info+0x2b0>
  while (entry < entry_end) {
  804160251b:	4c 3b 75 90          	cmp    -0x70(%rbp),%r14
  804160251f:	0f 83 37 02 00 00    	jae    804160275c <function_by_info+0x582>
                 uintptr_t *offset) {
  8041602525:	4c 89 f2             	mov    %r14,%rdx
  count  = 0;
  8041602528:	bf 00 00 00 00       	mov    $0x0,%edi
  shift  = 0;
  804160252d:	b9 00 00 00 00       	mov    $0x0,%ecx
  result = 0;
  8041602532:	41 b9 00 00 00 00    	mov    $0x0,%r9d
    byte = *addr;
  8041602538:	0f b6 32             	movzbl (%rdx),%esi
    addr++;
  804160253b:	48 83 c2 01          	add    $0x1,%rdx
    count++;
  804160253f:	83 c7 01             	add    $0x1,%edi
    result |= (byte & 0x7f) << shift;
  8041602542:	89 f0                	mov    %esi,%eax
  8041602544:	83 e0 7f             	and    $0x7f,%eax
  8041602547:	d3 e0                	shl    %cl,%eax
  8041602549:	41 09 c1             	or     %eax,%r9d
    shift += 7;
  804160254c:	83 c1 07             	add    $0x7,%ecx
    if (!(byte & 0x80))
  804160254f:	40 84 f6             	test   %sil,%sil
  8041602552:	78 e4                	js     8041602538 <function_by_info+0x35e>
  return count;
  8041602554:	48 63 ff             	movslq %edi,%rdi
    entry += count;
  8041602557:	49 01 fe             	add    %rdi,%r14
    if (abbrev_code == 0) {
  804160255a:	45 85 c9             	test   %r9d,%r9d
  804160255d:	0f 85 1b fe ff ff    	jne    804160237e <function_by_info+0x1a4>
  while (entry < entry_end) {
  8041602563:	4c 39 75 90          	cmp    %r14,-0x70(%rbp)
  8041602567:	77 bc                	ja     8041602525 <function_by_info+0x34b>
  return 0;
  8041602569:	b8 00 00 00 00       	mov    $0x0,%eax
  804160256e:	e9 de fc ff ff       	jmpq   8041602251 <function_by_info+0x77>
      uintptr_t low_pc = 0, high_pc = 0;
  8041602573:	48 c7 45 b0 00 00 00 	movq   $0x0,-0x50(%rbp)
  804160257a:	00 
  804160257b:	48 c7 45 b8 00 00 00 	movq   $0x0,-0x48(%rbp)
  8041602582:	00 
      unsigned name_form        = 0;
  8041602583:	c7 45 a4 00 00 00 00 	movl   $0x0,-0x5c(%rbp)
      const void *fn_name_entry = 0;
  804160258a:	48 c7 45 a8 00 00 00 	movq   $0x0,-0x58(%rbp)
  8041602591:	00 
  8041602592:	eb 1d                	jmp    80416025b1 <function_by_info+0x3d7>
          count = dwarf_read_abbrev_entry(
  8041602594:	41 b8 08 00 00 00    	mov    $0x8,%r8d
  804160259a:	b9 08 00 00 00       	mov    $0x8,%ecx
  804160259f:	48 8d 55 b0          	lea    -0x50(%rbp),%rdx
  80416025a3:	44 89 ee             	mov    %r13d,%esi
  80416025a6:	4c 89 f7             	mov    %r14,%rdi
  80416025a9:	41 ff d7             	callq  *%r15
        entry += count;
  80416025ac:	48 98                	cltq   
  80416025ae:	49 01 c6             	add    %rax,%r14
      const void *fn_name_entry = 0;
  80416025b1:	48 89 da             	mov    %rbx,%rdx
  count  = 0;
  80416025b4:	bf 00 00 00 00       	mov    $0x0,%edi
  shift  = 0;
  80416025b9:	b9 00 00 00 00       	mov    $0x0,%ecx
  result = 0;
  80416025be:	41 bc 00 00 00 00    	mov    $0x0,%r12d
    byte = *addr;
  80416025c4:	0f b6 32             	movzbl (%rdx),%esi
    addr++;
  80416025c7:	48 83 c2 01          	add    $0x1,%rdx
    count++;
  80416025cb:	83 c7 01             	add    $0x1,%edi
    result |= (byte & 0x7f) << shift;
  80416025ce:	89 f0                	mov    %esi,%eax
  80416025d0:	83 e0 7f             	and    $0x7f,%eax
  80416025d3:	d3 e0                	shl    %cl,%eax
  80416025d5:	41 09 c4             	or     %eax,%r12d
    shift += 7;
  80416025d8:	83 c1 07             	add    $0x7,%ecx
    if (!(byte & 0x80))
  80416025db:	40 84 f6             	test   %sil,%sil
  80416025de:	78 e4                	js     80416025c4 <function_by_info+0x3ea>
  return count;
  80416025e0:	48 63 ff             	movslq %edi,%rdi
        curr_abbrev_entry += count;
  80416025e3:	48 01 fb             	add    %rdi,%rbx
  80416025e6:	48 89 da             	mov    %rbx,%rdx
  count  = 0;
  80416025e9:	bf 00 00 00 00       	mov    $0x0,%edi
  shift  = 0;
  80416025ee:	b9 00 00 00 00       	mov    $0x0,%ecx
  result = 0;
  80416025f3:	41 bd 00 00 00 00    	mov    $0x0,%r13d
    byte = *addr;
  80416025f9:	0f b6 32             	movzbl (%rdx),%esi
    addr++;
  80416025fc:	48 83 c2 01          	add    $0x1,%rdx
    count++;
  8041602600:	83 c7 01             	add    $0x1,%edi
    result |= (byte & 0x7f) << shift;
  8041602603:	89 f0                	mov    %esi,%eax
  8041602605:	83 e0 7f             	and    $0x7f,%eax
  8041602608:	d3 e0                	shl    %cl,%eax
  804160260a:	41 09 c5             	or     %eax,%r13d
    shift += 7;
  804160260d:	83 c1 07             	add    $0x7,%ecx
    if (!(byte & 0x80))
  8041602610:	40 84 f6             	test   %sil,%sil
  8041602613:	78 e4                	js     80416025f9 <function_by_info+0x41f>
  return count;
  8041602615:	48 63 ff             	movslq %edi,%rdi
        curr_abbrev_entry += count;
  8041602618:	48 01 fb             	add    %rdi,%rbx
        if (name == DW_AT_low_pc) {
  804160261b:	41 83 fc 11          	cmp    $0x11,%r12d
  804160261f:	0f 84 6f ff ff ff    	je     8041602594 <function_by_info+0x3ba>
        } else if (name == DW_AT_high_pc) {
  8041602625:	41 83 fc 12          	cmp    $0x12,%r12d
  8041602629:	0f 84 99 00 00 00    	je     80416026c8 <function_by_info+0x4ee>
    result |= (byte & 0x7f) << shift;
  804160262f:	41 83 fc 03          	cmp    $0x3,%r12d
  8041602633:	8b 45 a4             	mov    -0x5c(%rbp),%eax
  8041602636:	41 0f 44 c5          	cmove  %r13d,%eax
  804160263a:	89 45 a4             	mov    %eax,-0x5c(%rbp)
  804160263d:	48 8b 45 a8          	mov    -0x58(%rbp),%rax
  8041602641:	49 0f 44 c6          	cmove  %r14,%rax
  8041602645:	48 89 45 a8          	mov    %rax,-0x58(%rbp)
          count = dwarf_read_abbrev_entry(
  8041602649:	41 b8 08 00 00 00    	mov    $0x8,%r8d
  804160264f:	b9 00 00 00 00       	mov    $0x0,%ecx
  8041602654:	ba 00 00 00 00       	mov    $0x0,%edx
  8041602659:	44 89 ee             	mov    %r13d,%esi
  804160265c:	4c 89 f7             	mov    %r14,%rdi
  804160265f:	41 ff d7             	callq  *%r15
        entry += count;
  8041602662:	48 98                	cltq   
  8041602664:	49 01 c6             	add    %rax,%r14
      } while (name != 0 || form != 0);
  8041602667:	45 09 e5             	or     %r12d,%r13d
  804160266a:	0f 85 41 ff ff ff    	jne    80416025b1 <function_by_info+0x3d7>
      if (p >= low_pc && p <= high_pc) {
  8041602670:	48 8b 45 b0          	mov    -0x50(%rbp),%rax
  8041602674:	48 8b 9d 78 ff ff ff 	mov    -0x88(%rbp),%rbx
  804160267b:	48 39 d8             	cmp    %rbx,%rax
  804160267e:	0f 87 97 fe ff ff    	ja     804160251b <function_by_info+0x341>
  8041602684:	48 39 5d b8          	cmp    %rbx,-0x48(%rbp)
  8041602688:	0f 82 8d fe ff ff    	jb     804160251b <function_by_info+0x341>
        *offset = low_pc;
  804160268e:	48 8b 9d 70 ff ff ff 	mov    -0x90(%rbp),%rbx
  8041602695:	48 89 03             	mov    %rax,(%rbx)
        if (name_form == DW_FORM_strp) {
  8041602698:	83 7d a4 0e          	cmpl   $0xe,-0x5c(%rbp)
  804160269c:	74 59                	je     80416026f7 <function_by_info+0x51d>
          count = dwarf_read_abbrev_entry(
  804160269e:	41 b8 08 00 00 00    	mov    $0x8,%r8d
  80416026a4:	8b 4d a0             	mov    -0x60(%rbp),%ecx
  80416026a7:	48 8b 55 88          	mov    -0x78(%rbp),%rdx
  80416026ab:	8b 75 a4             	mov    -0x5c(%rbp),%esi
  80416026ae:	48 8b 7d a8          	mov    -0x58(%rbp),%rdi
  80416026b2:	48 b8 3a 0d 60 41 80 	movabs $0x8041600d3a,%rax
  80416026b9:	00 00 00 
  80416026bc:	ff d0                	callq  *%rax
        return 0;
  80416026be:	b8 00 00 00 00       	mov    $0x0,%eax
  80416026c3:	e9 89 fb ff ff       	jmpq   8041602251 <function_by_info+0x77>
          count = dwarf_read_abbrev_entry(
  80416026c8:	41 b8 08 00 00 00    	mov    $0x8,%r8d
  80416026ce:	b9 08 00 00 00       	mov    $0x8,%ecx
  80416026d3:	48 8d 55 b8          	lea    -0x48(%rbp),%rdx
  80416026d7:	44 89 ee             	mov    %r13d,%esi
  80416026da:	4c 89 f7             	mov    %r14,%rdi
  80416026dd:	41 ff d7             	callq  *%r15
          if (form != DW_FORM_addr) {
  80416026e0:	41 83 fd 01          	cmp    $0x1,%r13d
  80416026e4:	0f 84 c2 fe ff ff    	je     80416025ac <function_by_info+0x3d2>
            high_pc += low_pc;
  80416026ea:	48 8b 55 b0          	mov    -0x50(%rbp),%rdx
  80416026ee:	48 01 55 b8          	add    %rdx,-0x48(%rbp)
  80416026f2:	e9 b5 fe ff ff       	jmpq   80416025ac <function_by_info+0x3d2>
          unsigned long str_offset = 0;
  80416026f7:	48 c7 45 c0 00 00 00 	movq   $0x0,-0x40(%rbp)
  80416026fe:	00 
          count                    = dwarf_read_abbrev_entry(
  80416026ff:	41 b8 08 00 00 00    	mov    $0x8,%r8d
  8041602705:	b9 08 00 00 00       	mov    $0x8,%ecx
  804160270a:	48 8d 55 c0          	lea    -0x40(%rbp),%rdx
  804160270e:	be 0e 00 00 00       	mov    $0xe,%esi
  8041602713:	48 8b 7d a8          	mov    -0x58(%rbp),%rdi
  8041602717:	48 b8 3a 0d 60 41 80 	movabs $0x8041600d3a,%rax
  804160271e:	00 00 00 
  8041602721:	ff d0                	callq  *%rax
          if (buf &&
  8041602723:	48 8b 7d 88          	mov    -0x78(%rbp),%rdi
  8041602727:	48 85 ff             	test   %rdi,%rdi
  804160272a:	74 92                	je     80416026be <function_by_info+0x4e4>
  804160272c:	83 7d a0 07          	cmpl   $0x7,-0x60(%rbp)
  8041602730:	76 8c                	jbe    80416026be <function_by_info+0x4e4>
            put_unaligned(
  8041602732:	48 8b 45 c0          	mov    -0x40(%rbp),%rax
  8041602736:	48 8b 5d 98          	mov    -0x68(%rbp),%rbx
  804160273a:	48 03 43 40          	add    0x40(%rbx),%rax
  804160273e:	48 89 45 c8          	mov    %rax,-0x38(%rbp)
  8041602742:	ba 08 00 00 00       	mov    $0x8,%edx
  8041602747:	48 8d 75 c8          	lea    -0x38(%rbp),%rsi
  804160274b:	48 b8 64 c5 60 41 80 	movabs $0x804160c564,%rax
  8041602752:	00 00 00 
  8041602755:	ff d0                	callq  *%rax
  8041602757:	e9 62 ff ff ff       	jmpq   80416026be <function_by_info+0x4e4>
  return 0;
  804160275c:	b8 00 00 00 00       	mov    $0x0,%eax
  8041602761:	e9 eb fa ff ff       	jmpq   8041602251 <function_by_info+0x77>

0000008041602766 <address_by_fname>:

int
address_by_fname(const struct Dwarf_Addrs *addrs, const char *fname,
                 uintptr_t *offset) {
  8041602766:	55                   	push   %rbp
  8041602767:	48 89 e5             	mov    %rsp,%rbp
  804160276a:	41 57                	push   %r15
  804160276c:	41 56                	push   %r14
  804160276e:	41 55                	push   %r13
  8041602770:	41 54                	push   %r12
  8041602772:	53                   	push   %rbx
  8041602773:	48 83 ec 48          	sub    $0x48,%rsp
  8041602777:	49 89 ff             	mov    %rdi,%r15
  804160277a:	48 89 7d a8          	mov    %rdi,-0x58(%rbp)
  804160277e:	48 89 f7             	mov    %rsi,%rdi
  8041602781:	48 89 75 b0          	mov    %rsi,-0x50(%rbp)
  8041602785:	48 89 55 98          	mov    %rdx,-0x68(%rbp)
  const int flen = strlen(fname);
  8041602789:	48 b8 eb c2 60 41 80 	movabs $0x804160c2eb,%rax
  8041602790:	00 00 00 
  8041602793:	ff d0                	callq  *%rax
  8041602795:	89 c3                	mov    %eax,%ebx
  if (flen == 0)
  8041602797:	85 c0                	test   %eax,%eax
  8041602799:	74 62                	je     80416027fd <address_by_fname+0x97>
    return 0;
  const void *pubnames_entry = addrs->pubnames_begin;
  804160279b:	4d 8b 67 50          	mov    0x50(%r15),%r12
  initial_len = get_unaligned(addr, uint32_t);
  804160279f:	49 be 64 c5 60 41 80 	movabs $0x804160c564,%r14
  80416027a6:	00 00 00 
      func_offset = get_unaligned(pubnames_entry, uint32_t);
      pubnames_entry += sizeof(uint32_t);
      if (func_offset == 0) {
        break;
      }
      if (!strcmp(fname, pubnames_entry)) {
  80416027a9:	49 bf fa c3 60 41 80 	movabs $0x804160c3fa,%r15
  80416027b0:	00 00 00 
  while ((const unsigned char *)pubnames_entry < addrs->pubnames_end) {
  80416027b3:	48 8b 45 a8          	mov    -0x58(%rbp),%rax
  80416027b7:	4c 39 60 58          	cmp    %r12,0x58(%rax)
  80416027bb:	0f 86 0b 04 00 00    	jbe    8041602bcc <address_by_fname+0x466>
  80416027c1:	ba 04 00 00 00       	mov    $0x4,%edx
  80416027c6:	4c 89 e6             	mov    %r12,%rsi
  80416027c9:	48 8d 7d c8          	lea    -0x38(%rbp),%rdi
  80416027cd:	41 ff d6             	callq  *%r14
  80416027d0:	8b 45 c8             	mov    -0x38(%rbp),%eax
  if (initial_len >= DW_EXT_LO && initial_len <= DW_EXT_HI) {
  80416027d3:	83 f8 ef             	cmp    $0xffffffef,%eax
  80416027d6:	76 52                	jbe    804160282a <address_by_fname+0xc4>
    if (initial_len == DW_EXT_DWARF64) {
  80416027d8:	83 f8 ff             	cmp    $0xffffffff,%eax
  80416027db:	74 31                	je     804160280e <address_by_fname+0xa8>
      cprintf("Unknown DWARF extension\n");
  80416027dd:	48 bf c0 cf 60 41 80 	movabs $0x804160cfc0,%rdi
  80416027e4:	00 00 00 
  80416027e7:	b8 00 00 00 00       	mov    $0x0,%eax
  80416027ec:	48 ba 0d 92 60 41 80 	movabs $0x804160920d,%rdx
  80416027f3:	00 00 00 
  80416027f6:	ff d2                	callq  *%rdx
      return -E_BAD_DWARF;
  80416027f8:	bb fa ff ff ff       	mov    $0xfffffffa,%ebx
      }
      pubnames_entry += strlen(pubnames_entry) + 1;
    }
  }
  return 0;
}
  80416027fd:	89 d8                	mov    %ebx,%eax
  80416027ff:	48 83 c4 48          	add    $0x48,%rsp
  8041602803:	5b                   	pop    %rbx
  8041602804:	41 5c                	pop    %r12
  8041602806:	41 5d                	pop    %r13
  8041602808:	41 5e                	pop    %r14
  804160280a:	41 5f                	pop    %r15
  804160280c:	5d                   	pop    %rbp
  804160280d:	c3                   	retq   
      *len  = get_unaligned((uint64_t *)addr + 4, uint64_t);
  804160280e:	49 8d 74 24 20       	lea    0x20(%r12),%rsi
  8041602813:	ba 08 00 00 00       	mov    $0x8,%edx
  8041602818:	48 8d 7d c8          	lea    -0x38(%rbp),%rdi
  804160281c:	41 ff d6             	callq  *%r14
  804160281f:	48 8b 45 c8          	mov    -0x38(%rbp),%rax
      count = 12;
  8041602823:	ba 0c 00 00 00       	mov    $0xc,%edx
  8041602828:	eb 07                	jmp    8041602831 <address_by_fname+0xcb>
    *len = initial_len;
  804160282a:	89 c0                	mov    %eax,%eax
  count       = 4;
  804160282c:	ba 04 00 00 00       	mov    $0x4,%edx
    pubnames_entry += count;
  8041602831:	48 63 d2             	movslq %edx,%rdx
  8041602834:	49 01 d4             	add    %rdx,%r12
    const void *pubnames_entry_end = pubnames_entry + len;
  8041602837:	4c 01 e0             	add    %r12,%rax
  804160283a:	48 89 45 b8          	mov    %rax,-0x48(%rbp)
    Dwarf_Half version             = get_unaligned(pubnames_entry, Dwarf_Half);
  804160283e:	ba 02 00 00 00       	mov    $0x2,%edx
  8041602843:	4c 89 e6             	mov    %r12,%rsi
  8041602846:	48 8d 7d c8          	lea    -0x38(%rbp),%rdi
  804160284a:	41 ff d6             	callq  *%r14
    pubnames_entry += sizeof(Dwarf_Half);
  804160284d:	49 8d 74 24 02       	lea    0x2(%r12),%rsi
    assert(version == 2);
  8041602852:	66 83 7d c8 02       	cmpw   $0x2,-0x38(%rbp)
  8041602857:	0f 85 be 00 00 00    	jne    804160291b <address_by_fname+0x1b5>
    cu_offset = get_unaligned(pubnames_entry, uint32_t);
  804160285d:	ba 04 00 00 00       	mov    $0x4,%edx
  8041602862:	48 8d 7d c8          	lea    -0x38(%rbp),%rdi
  8041602866:	41 ff d6             	callq  *%r14
  8041602869:	8b 45 c8             	mov    -0x38(%rbp),%eax
  804160286c:	89 45 a4             	mov    %eax,-0x5c(%rbp)
    pubnames_entry += sizeof(uint32_t);
  804160286f:	49 8d 5c 24 06       	lea    0x6(%r12),%rbx
  initial_len = get_unaligned(addr, uint32_t);
  8041602874:	ba 04 00 00 00       	mov    $0x4,%edx
  8041602879:	48 89 de             	mov    %rbx,%rsi
  804160287c:	48 8d 7d c8          	lea    -0x38(%rbp),%rdi
  8041602880:	41 ff d6             	callq  *%r14
  8041602883:	8b 55 c8             	mov    -0x38(%rbp),%edx
  count       = 4;
  8041602886:	b8 04 00 00 00       	mov    $0x4,%eax
  if (initial_len >= DW_EXT_LO && initial_len <= DW_EXT_HI) {
  804160288b:	83 fa ef             	cmp    $0xffffffef,%edx
  804160288e:	76 29                	jbe    80416028b9 <address_by_fname+0x153>
    if (initial_len == DW_EXT_DWARF64) {
  8041602890:	83 fa ff             	cmp    $0xffffffff,%edx
  8041602893:	0f 84 b7 00 00 00    	je     8041602950 <address_by_fname+0x1ea>
      cprintf("Unknown DWARF extension\n");
  8041602899:	48 bf c0 cf 60 41 80 	movabs $0x804160cfc0,%rdi
  80416028a0:	00 00 00 
  80416028a3:	b8 00 00 00 00       	mov    $0x0,%eax
  80416028a8:	48 b9 0d 92 60 41 80 	movabs $0x804160920d,%rcx
  80416028af:	00 00 00 
  80416028b2:	ff d1                	callq  *%rcx
      count = 0;
  80416028b4:	b8 00 00 00 00       	mov    $0x0,%eax
    pubnames_entry += count;
  80416028b9:	48 98                	cltq   
  80416028bb:	4c 8d 24 03          	lea    (%rbx,%rax,1),%r12
    while (pubnames_entry < pubnames_entry_end) {
  80416028bf:	4c 39 65 b8          	cmp    %r12,-0x48(%rbp)
  80416028c3:	0f 86 ea fe ff ff    	jbe    80416027b3 <address_by_fname+0x4d>
      func_offset = get_unaligned(pubnames_entry, uint32_t);
  80416028c9:	ba 04 00 00 00       	mov    $0x4,%edx
  80416028ce:	4c 89 e6             	mov    %r12,%rsi
  80416028d1:	48 8d 7d c8          	lea    -0x38(%rbp),%rdi
  80416028d5:	41 ff d6             	callq  *%r14
  80416028d8:	44 8b 6d c8          	mov    -0x38(%rbp),%r13d
      pubnames_entry += sizeof(uint32_t);
  80416028dc:	49 83 c4 04          	add    $0x4,%r12
      if (func_offset == 0) {
  80416028e0:	4d 85 ed             	test   %r13,%r13
  80416028e3:	0f 84 ca fe ff ff    	je     80416027b3 <address_by_fname+0x4d>
      if (!strcmp(fname, pubnames_entry)) {
  80416028e9:	4c 89 e6             	mov    %r12,%rsi
  80416028ec:	48 8b 7d b0          	mov    -0x50(%rbp),%rdi
  80416028f0:	41 ff d7             	callq  *%r15
  80416028f3:	89 c3                	mov    %eax,%ebx
  80416028f5:	85 c0                	test   %eax,%eax
  80416028f7:	74 72                	je     804160296b <address_by_fname+0x205>
      pubnames_entry += strlen(pubnames_entry) + 1;
  80416028f9:	4c 89 e7             	mov    %r12,%rdi
  80416028fc:	48 b8 eb c2 60 41 80 	movabs $0x804160c2eb,%rax
  8041602903:	00 00 00 
  8041602906:	ff d0                	callq  *%rax
  8041602908:	83 c0 01             	add    $0x1,%eax
  804160290b:	48 98                	cltq   
  804160290d:	49 01 c4             	add    %rax,%r12
    while (pubnames_entry < pubnames_entry_end) {
  8041602910:	4c 39 65 b8          	cmp    %r12,-0x48(%rbp)
  8041602914:	77 b3                	ja     80416028c9 <address_by_fname+0x163>
  8041602916:	e9 98 fe ff ff       	jmpq   80416027b3 <address_by_fname+0x4d>
    assert(version == 2);
  804160291b:	48 b9 3e d0 60 41 80 	movabs $0x804160d03e,%rcx
  8041602922:	00 00 00 
  8041602925:	48 ba d9 cf 60 41 80 	movabs $0x804160cfd9,%rdx
  804160292c:	00 00 00 
  804160292f:	be 76 02 00 00       	mov    $0x276,%esi
  8041602934:	48 bf ee cf 60 41 80 	movabs $0x804160cfee,%rdi
  804160293b:	00 00 00 
  804160293e:	b8 00 00 00 00       	mov    $0x0,%eax
  8041602943:	49 b8 5a 02 60 41 80 	movabs $0x804160025a,%r8
  804160294a:	00 00 00 
  804160294d:	41 ff d0             	callq  *%r8
      *len  = get_unaligned((uint64_t *)addr + 4, uint64_t);
  8041602950:	49 8d 74 24 26       	lea    0x26(%r12),%rsi
  8041602955:	ba 08 00 00 00       	mov    $0x8,%edx
  804160295a:	48 8d 7d c8          	lea    -0x38(%rbp),%rdi
  804160295e:	41 ff d6             	callq  *%r14
      count = 12;
  8041602961:	b8 0c 00 00 00       	mov    $0xc,%eax
  8041602966:	e9 4e ff ff ff       	jmpq   80416028b9 <address_by_fname+0x153>
    cu_offset = get_unaligned(pubnames_entry, uint32_t);
  804160296b:	44 8b 65 a4          	mov    -0x5c(%rbp),%r12d
        const void *entry      = addrs->info_begin + cu_offset;
  804160296f:	48 8b 45 a8          	mov    -0x58(%rbp),%rax
  8041602973:	4c 03 60 20          	add    0x20(%rax),%r12
        const void *func_entry = entry + func_offset;
  8041602977:	4f 8d 3c 2c          	lea    (%r12,%r13,1),%r15
  initial_len = get_unaligned(addr, uint32_t);
  804160297b:	ba 04 00 00 00       	mov    $0x4,%edx
  8041602980:	4c 89 e6             	mov    %r12,%rsi
  8041602983:	48 8d 7d c8          	lea    -0x38(%rbp),%rdi
  8041602987:	48 b8 64 c5 60 41 80 	movabs $0x804160c564,%rax
  804160298e:	00 00 00 
  8041602991:	ff d0                	callq  *%rax
  8041602993:	8b 45 c8             	mov    -0x38(%rbp),%eax
  if (initial_len >= DW_EXT_LO && initial_len <= DW_EXT_HI) {
  8041602996:	83 f8 ef             	cmp    $0xffffffef,%eax
  8041602999:	0f 86 37 02 00 00    	jbe    8041602bd6 <address_by_fname+0x470>
    if (initial_len == DW_EXT_DWARF64) {
  804160299f:	83 f8 ff             	cmp    $0xffffffff,%eax
  80416029a2:	74 25                	je     80416029c9 <address_by_fname+0x263>
      cprintf("Unknown DWARF extension\n");
  80416029a4:	48 bf c0 cf 60 41 80 	movabs $0x804160cfc0,%rdi
  80416029ab:	00 00 00 
  80416029ae:	b8 00 00 00 00       	mov    $0x0,%eax
  80416029b3:	48 ba 0d 92 60 41 80 	movabs $0x804160920d,%rdx
  80416029ba:	00 00 00 
  80416029bd:	ff d2                	callq  *%rdx
          return -E_BAD_DWARF;
  80416029bf:	bb fa ff ff ff       	mov    $0xfffffffa,%ebx
  80416029c4:	e9 34 fe ff ff       	jmpq   80416027fd <address_by_fname+0x97>
      *len  = get_unaligned((uint64_t *)addr + 4, uint64_t);
  80416029c9:	49 8d 74 24 20       	lea    0x20(%r12),%rsi
  80416029ce:	ba 08 00 00 00       	mov    $0x8,%edx
  80416029d3:	48 8d 7d c8          	lea    -0x38(%rbp),%rdi
  80416029d7:	48 b8 64 c5 60 41 80 	movabs $0x804160c564,%rax
  80416029de:	00 00 00 
  80416029e1:	ff d0                	callq  *%rax
      count = 12;
  80416029e3:	b8 0c 00 00 00       	mov    $0xc,%eax
  80416029e8:	e9 ee 01 00 00       	jmpq   8041602bdb <address_by_fname+0x475>
        assert(version == 4 || version == 2);
  80416029ed:	48 b9 2e d0 60 41 80 	movabs $0x804160d02e,%rcx
  80416029f4:	00 00 00 
  80416029f7:	48 ba d9 cf 60 41 80 	movabs $0x804160cfd9,%rdx
  80416029fe:	00 00 00 
  8041602a01:	be 8c 02 00 00       	mov    $0x28c,%esi
  8041602a06:	48 bf ee cf 60 41 80 	movabs $0x804160cfee,%rdi
  8041602a0d:	00 00 00 
  8041602a10:	b8 00 00 00 00       	mov    $0x0,%eax
  8041602a15:	49 b8 5a 02 60 41 80 	movabs $0x804160025a,%r8
  8041602a1c:	00 00 00 
  8041602a1f:	41 ff d0             	callq  *%r8
        assert(address_size == 8);
  8041602a22:	48 b9 fb cf 60 41 80 	movabs $0x804160cffb,%rcx
  8041602a29:	00 00 00 
  8041602a2c:	48 ba d9 cf 60 41 80 	movabs $0x804160cfd9,%rdx
  8041602a33:	00 00 00 
  8041602a36:	be 91 02 00 00       	mov    $0x291,%esi
  8041602a3b:	48 bf ee cf 60 41 80 	movabs $0x804160cfee,%rdi
  8041602a42:	00 00 00 
  8041602a45:	b8 00 00 00 00       	mov    $0x0,%eax
  8041602a4a:	49 b8 5a 02 60 41 80 	movabs $0x804160025a,%r8
  8041602a51:	00 00 00 
  8041602a54:	41 ff d0             	callq  *%r8
        if (tag == DW_TAG_subprogram) {
  8041602a57:	41 83 f9 2e          	cmp    $0x2e,%r9d
  8041602a5b:	0f 84 93 00 00 00    	je     8041602af4 <address_by_fname+0x38e>
  count  = 0;
  8041602a61:	89 df                	mov    %ebx,%edi
  shift  = 0;
  8041602a63:	89 d9                	mov    %ebx,%ecx
  8041602a65:	4c 89 e2             	mov    %r12,%rdx
  result = 0;
  8041602a68:	41 be 00 00 00 00    	mov    $0x0,%r14d
    byte = *addr;
  8041602a6e:	0f b6 32             	movzbl (%rdx),%esi
    addr++;
  8041602a71:	48 83 c2 01          	add    $0x1,%rdx
    count++;
  8041602a75:	83 c7 01             	add    $0x1,%edi
    result |= (byte & 0x7f) << shift;
  8041602a78:	89 f0                	mov    %esi,%eax
  8041602a7a:	83 e0 7f             	and    $0x7f,%eax
  8041602a7d:	d3 e0                	shl    %cl,%eax
  8041602a7f:	41 09 c6             	or     %eax,%r14d
    shift += 7;
  8041602a82:	83 c1 07             	add    $0x7,%ecx
    if (!(byte & 0x80))
  8041602a85:	40 84 f6             	test   %sil,%sil
  8041602a88:	78 e4                	js     8041602a6e <address_by_fname+0x308>
  return count;
  8041602a8a:	48 63 ff             	movslq %edi,%rdi
            abbrev_entry += count;
  8041602a8d:	49 01 fc             	add    %rdi,%r12
  count  = 0;
  8041602a90:	89 df                	mov    %ebx,%edi
  shift  = 0;
  8041602a92:	89 d9                	mov    %ebx,%ecx
  8041602a94:	4c 89 e2             	mov    %r12,%rdx
  result = 0;
  8041602a97:	41 bd 00 00 00 00    	mov    $0x0,%r13d
    byte = *addr;
  8041602a9d:	0f b6 32             	movzbl (%rdx),%esi
    addr++;
  8041602aa0:	48 83 c2 01          	add    $0x1,%rdx
    count++;
  8041602aa4:	83 c7 01             	add    $0x1,%edi
    result |= (byte & 0x7f) << shift;
  8041602aa7:	89 f0                	mov    %esi,%eax
  8041602aa9:	83 e0 7f             	and    $0x7f,%eax
  8041602aac:	d3 e0                	shl    %cl,%eax
  8041602aae:	41 09 c5             	or     %eax,%r13d
    shift += 7;
  8041602ab1:	83 c1 07             	add    $0x7,%ecx
    if (!(byte & 0x80))
  8041602ab4:	40 84 f6             	test   %sil,%sil
  8041602ab7:	78 e4                	js     8041602a9d <address_by_fname+0x337>
  return count;
  8041602ab9:	48 63 ff             	movslq %edi,%rdi
            abbrev_entry += count;
  8041602abc:	49 01 fc             	add    %rdi,%r12
            count = dwarf_read_abbrev_entry(entry, form, NULL, 0, address_size);
  8041602abf:	41 b8 08 00 00 00    	mov    $0x8,%r8d
  8041602ac5:	b9 00 00 00 00       	mov    $0x0,%ecx
  8041602aca:	ba 00 00 00 00       	mov    $0x0,%edx
  8041602acf:	44 89 ee             	mov    %r13d,%esi
  8041602ad2:	4c 89 ff             	mov    %r15,%rdi
  8041602ad5:	48 b8 3a 0d 60 41 80 	movabs $0x8041600d3a,%rax
  8041602adc:	00 00 00 
  8041602adf:	ff d0                	callq  *%rax
            entry += count;
  8041602ae1:	48 98                	cltq   
  8041602ae3:	49 01 c7             	add    %rax,%r15
          } while (name != 0 || form != 0);
  8041602ae6:	45 09 f5             	or     %r14d,%r13d
  8041602ae9:	0f 85 72 ff ff ff    	jne    8041602a61 <address_by_fname+0x2fb>
  8041602aef:	e9 09 fd ff ff       	jmpq   80416027fd <address_by_fname+0x97>
          uintptr_t low_pc = 0;
  8041602af4:	48 c7 45 c8 00 00 00 	movq   $0x0,-0x38(%rbp)
  8041602afb:	00 
  8041602afc:	eb 26                	jmp    8041602b24 <address_by_fname+0x3be>
              count = dwarf_read_abbrev_entry(entry, form, &low_pc, sizeof(low_pc), address_size);
  8041602afe:	41 b8 08 00 00 00    	mov    $0x8,%r8d
  8041602b04:	b9 08 00 00 00       	mov    $0x8,%ecx
  8041602b09:	48 8d 55 c8          	lea    -0x38(%rbp),%rdx
  8041602b0d:	44 89 f6             	mov    %r14d,%esi
  8041602b10:	4c 89 ff             	mov    %r15,%rdi
  8041602b13:	48 b8 3a 0d 60 41 80 	movabs $0x8041600d3a,%rax
  8041602b1a:	00 00 00 
  8041602b1d:	ff d0                	callq  *%rax
            entry += count;
  8041602b1f:	48 98                	cltq   
  8041602b21:	49 01 c7             	add    %rax,%r15
  count  = 0;
  8041602b24:	89 df                	mov    %ebx,%edi
  shift  = 0;
  8041602b26:	89 d9                	mov    %ebx,%ecx
  8041602b28:	4c 89 e2             	mov    %r12,%rdx
  result = 0;
  8041602b2b:	41 bd 00 00 00 00    	mov    $0x0,%r13d
    byte = *addr;
  8041602b31:	0f b6 32             	movzbl (%rdx),%esi
    addr++;
  8041602b34:	48 83 c2 01          	add    $0x1,%rdx
    count++;
  8041602b38:	83 c7 01             	add    $0x1,%edi
    result |= (byte & 0x7f) << shift;
  8041602b3b:	89 f0                	mov    %esi,%eax
  8041602b3d:	83 e0 7f             	and    $0x7f,%eax
  8041602b40:	d3 e0                	shl    %cl,%eax
  8041602b42:	41 09 c5             	or     %eax,%r13d
    shift += 7;
  8041602b45:	83 c1 07             	add    $0x7,%ecx
    if (!(byte & 0x80))
  8041602b48:	40 84 f6             	test   %sil,%sil
  8041602b4b:	78 e4                	js     8041602b31 <address_by_fname+0x3cb>
  return count;
  8041602b4d:	48 63 ff             	movslq %edi,%rdi
            abbrev_entry += count;
  8041602b50:	49 01 fc             	add    %rdi,%r12
  count  = 0;
  8041602b53:	89 df                	mov    %ebx,%edi
  shift  = 0;
  8041602b55:	89 d9                	mov    %ebx,%ecx
  8041602b57:	4c 89 e2             	mov    %r12,%rdx
  result = 0;
  8041602b5a:	41 be 00 00 00 00    	mov    $0x0,%r14d
    byte = *addr;
  8041602b60:	0f b6 32             	movzbl (%rdx),%esi
    addr++;
  8041602b63:	48 83 c2 01          	add    $0x1,%rdx
    count++;
  8041602b67:	83 c7 01             	add    $0x1,%edi
    result |= (byte & 0x7f) << shift;
  8041602b6a:	89 f0                	mov    %esi,%eax
  8041602b6c:	83 e0 7f             	and    $0x7f,%eax
  8041602b6f:	d3 e0                	shl    %cl,%eax
  8041602b71:	41 09 c6             	or     %eax,%r14d
    shift += 7;
  8041602b74:	83 c1 07             	add    $0x7,%ecx
    if (!(byte & 0x80))
  8041602b77:	40 84 f6             	test   %sil,%sil
  8041602b7a:	78 e4                	js     8041602b60 <address_by_fname+0x3fa>
  return count;
  8041602b7c:	48 63 ff             	movslq %edi,%rdi
            abbrev_entry += count;
  8041602b7f:	49 01 fc             	add    %rdi,%r12
            if (name == DW_AT_low_pc) {
  8041602b82:	41 83 fd 11          	cmp    $0x11,%r13d
  8041602b86:	0f 84 72 ff ff ff    	je     8041602afe <address_by_fname+0x398>
              count = dwarf_read_abbrev_entry(entry, form, NULL, 0, address_size);
  8041602b8c:	41 b8 08 00 00 00    	mov    $0x8,%r8d
  8041602b92:	b9 00 00 00 00       	mov    $0x0,%ecx
  8041602b97:	ba 00 00 00 00       	mov    $0x0,%edx
  8041602b9c:	44 89 f6             	mov    %r14d,%esi
  8041602b9f:	4c 89 ff             	mov    %r15,%rdi
  8041602ba2:	48 b8 3a 0d 60 41 80 	movabs $0x8041600d3a,%rax
  8041602ba9:	00 00 00 
  8041602bac:	ff d0                	callq  *%rax
            entry += count;
  8041602bae:	48 98                	cltq   
  8041602bb0:	49 01 c7             	add    %rax,%r15
          } while (name || form);
  8041602bb3:	45 09 ee             	or     %r13d,%r14d
  8041602bb6:	0f 85 68 ff ff ff    	jne    8041602b24 <address_by_fname+0x3be>
          *offset = low_pc;
  8041602bbc:	48 8b 45 c8          	mov    -0x38(%rbp),%rax
  8041602bc0:	48 8b 7d 98          	mov    -0x68(%rbp),%rdi
  8041602bc4:	48 89 07             	mov    %rax,(%rdi)
  8041602bc7:	e9 31 fc ff ff       	jmpq   80416027fd <address_by_fname+0x97>
  return 0;
  8041602bcc:	bb 00 00 00 00       	mov    $0x0,%ebx
  8041602bd1:	e9 27 fc ff ff       	jmpq   80416027fd <address_by_fname+0x97>
  count       = 4;
  8041602bd6:	b8 04 00 00 00       	mov    $0x4,%eax
        entry += count;
  8041602bdb:	48 98                	cltq   
  8041602bdd:	4d 8d 2c 04          	lea    (%r12,%rax,1),%r13
        Dwarf_Half version = get_unaligned(entry, Dwarf_Half);
  8041602be1:	ba 02 00 00 00       	mov    $0x2,%edx
  8041602be6:	4c 89 ee             	mov    %r13,%rsi
  8041602be9:	48 8d 7d c8          	lea    -0x38(%rbp),%rdi
  8041602bed:	48 b8 64 c5 60 41 80 	movabs $0x804160c564,%rax
  8041602bf4:	00 00 00 
  8041602bf7:	ff d0                	callq  *%rax
        entry += sizeof(Dwarf_Half);
  8041602bf9:	49 8d 75 02          	lea    0x2(%r13),%rsi
        assert(version == 4 || version == 2);
  8041602bfd:	0f b7 45 c8          	movzwl -0x38(%rbp),%eax
  8041602c01:	83 e8 02             	sub    $0x2,%eax
  8041602c04:	66 a9 fd ff          	test   $0xfffd,%ax
  8041602c08:	0f 85 df fd ff ff    	jne    80416029ed <address_by_fname+0x287>
        Dwarf_Off abbrev_offset = get_unaligned(entry, uint32_t);
  8041602c0e:	ba 04 00 00 00       	mov    $0x4,%edx
  8041602c13:	48 8d 7d c8          	lea    -0x38(%rbp),%rdi
  8041602c17:	49 be 64 c5 60 41 80 	movabs $0x804160c564,%r14
  8041602c1e:	00 00 00 
  8041602c21:	41 ff d6             	callq  *%r14
  8041602c24:	44 8b 65 c8          	mov    -0x38(%rbp),%r12d
        const void *abbrev_entry = addrs->abbrev_begin + abbrev_offset;
  8041602c28:	48 8b 45 a8          	mov    -0x58(%rbp),%rax
  8041602c2c:	4c 03 20             	add    (%rax),%r12
        entry += sizeof(uint32_t);
  8041602c2f:	49 8d 75 06          	lea    0x6(%r13),%rsi
        Dwarf_Small address_size = get_unaligned(entry++, Dwarf_Small);
  8041602c33:	ba 01 00 00 00       	mov    $0x1,%edx
  8041602c38:	48 8d 7d c8          	lea    -0x38(%rbp),%rdi
  8041602c3c:	41 ff d6             	callq  *%r14
        assert(address_size == 8);
  8041602c3f:	80 7d c8 08          	cmpb   $0x8,-0x38(%rbp)
  8041602c43:	0f 85 d9 fd ff ff    	jne    8041602a22 <address_by_fname+0x2bc>
  count  = 0;
  8041602c49:	89 df                	mov    %ebx,%edi
  shift  = 0;
  8041602c4b:	89 d9                	mov    %ebx,%ecx
  8041602c4d:	4c 89 fa             	mov    %r15,%rdx
  result = 0;
  8041602c50:	41 ba 00 00 00 00    	mov    $0x0,%r10d
    byte = *addr;
  8041602c56:	0f b6 32             	movzbl (%rdx),%esi
    addr++;
  8041602c59:	48 83 c2 01          	add    $0x1,%rdx
    count++;
  8041602c5d:	83 c7 01             	add    $0x1,%edi
    result |= (byte & 0x7f) << shift;
  8041602c60:	89 f0                	mov    %esi,%eax
  8041602c62:	83 e0 7f             	and    $0x7f,%eax
  8041602c65:	d3 e0                	shl    %cl,%eax
  8041602c67:	41 09 c2             	or     %eax,%r10d
    shift += 7;
  8041602c6a:	83 c1 07             	add    $0x7,%ecx
    if (!(byte & 0x80))
  8041602c6d:	40 84 f6             	test   %sil,%sil
  8041602c70:	78 e4                	js     8041602c56 <address_by_fname+0x4f0>
  return count;
  8041602c72:	48 63 ff             	movslq %edi,%rdi
        entry += count;
  8041602c75:	49 01 ff             	add    %rdi,%r15
        while ((const unsigned char *)abbrev_entry < addrs->abbrev_end) { // unsafe needs
  8041602c78:	48 8b 45 a8          	mov    -0x58(%rbp),%rax
  8041602c7c:	4c 8b 58 08          	mov    0x8(%rax),%r11
        unsigned name = 0, form = 0, tag = 0;
  8041602c80:	41 b9 00 00 00 00    	mov    $0x0,%r9d
        while ((const unsigned char *)abbrev_entry < addrs->abbrev_end) { // unsafe needs
  8041602c86:	4d 39 e3             	cmp    %r12,%r11
  8041602c89:	0f 86 c8 fd ff ff    	jbe    8041602a57 <address_by_fname+0x2f1>
  count  = 0;
  8041602c8f:	41 89 d8             	mov    %ebx,%r8d
  shift  = 0;
  8041602c92:	89 d9                	mov    %ebx,%ecx
  8041602c94:	4c 89 e2             	mov    %r12,%rdx
  result = 0;
  8041602c97:	be 00 00 00 00       	mov    $0x0,%esi
    byte = *addr;
  8041602c9c:	0f b6 3a             	movzbl (%rdx),%edi
    addr++;
  8041602c9f:	48 83 c2 01          	add    $0x1,%rdx
    count++;
  8041602ca3:	41 83 c0 01          	add    $0x1,%r8d
    result |= (byte & 0x7f) << shift;
  8041602ca7:	89 f8                	mov    %edi,%eax
  8041602ca9:	83 e0 7f             	and    $0x7f,%eax
  8041602cac:	d3 e0                	shl    %cl,%eax
  8041602cae:	09 c6                	or     %eax,%esi
    shift += 7;
  8041602cb0:	83 c1 07             	add    $0x7,%ecx
    if (!(byte & 0x80))
  8041602cb3:	40 84 ff             	test   %dil,%dil
  8041602cb6:	78 e4                	js     8041602c9c <address_by_fname+0x536>
  return count;
  8041602cb8:	4d 63 c0             	movslq %r8d,%r8
          abbrev_entry += count;
  8041602cbb:	4d 01 c4             	add    %r8,%r12
  count  = 0;
  8041602cbe:	41 89 d8             	mov    %ebx,%r8d
  shift  = 0;
  8041602cc1:	89 d9                	mov    %ebx,%ecx
  8041602cc3:	4c 89 e2             	mov    %r12,%rdx
  result = 0;
  8041602cc6:	41 b9 00 00 00 00    	mov    $0x0,%r9d
    byte = *addr;
  8041602ccc:	0f b6 3a             	movzbl (%rdx),%edi
    addr++;
  8041602ccf:	48 83 c2 01          	add    $0x1,%rdx
    count++;
  8041602cd3:	41 83 c0 01          	add    $0x1,%r8d
    result |= (byte & 0x7f) << shift;
  8041602cd7:	89 f8                	mov    %edi,%eax
  8041602cd9:	83 e0 7f             	and    $0x7f,%eax
  8041602cdc:	d3 e0                	shl    %cl,%eax
  8041602cde:	41 09 c1             	or     %eax,%r9d
    shift += 7;
  8041602ce1:	83 c1 07             	add    $0x7,%ecx
    if (!(byte & 0x80))
  8041602ce4:	40 84 ff             	test   %dil,%dil
  8041602ce7:	78 e3                	js     8041602ccc <address_by_fname+0x566>
  return count;
  8041602ce9:	4d 63 c0             	movslq %r8d,%r8
          abbrev_entry++;
  8041602cec:	4f 8d 64 04 01       	lea    0x1(%r12,%r8,1),%r12
          if (table_abbrev_code == abbrev_code) {
  8041602cf1:	41 39 f2             	cmp    %esi,%r10d
  8041602cf4:	0f 84 5d fd ff ff    	je     8041602a57 <address_by_fname+0x2f1>
  count  = 0;
  8041602cfa:	41 89 d8             	mov    %ebx,%r8d
  shift  = 0;
  8041602cfd:	89 d9                	mov    %ebx,%ecx
  8041602cff:	4c 89 e2             	mov    %r12,%rdx
  result = 0;
  8041602d02:	bf 00 00 00 00       	mov    $0x0,%edi
    byte = *addr;
  8041602d07:	0f b6 32             	movzbl (%rdx),%esi
    addr++;
  8041602d0a:	48 83 c2 01          	add    $0x1,%rdx
    count++;
  8041602d0e:	41 83 c0 01          	add    $0x1,%r8d
    result |= (byte & 0x7f) << shift;
  8041602d12:	89 f0                	mov    %esi,%eax
  8041602d14:	83 e0 7f             	and    $0x7f,%eax
  8041602d17:	d3 e0                	shl    %cl,%eax
  8041602d19:	09 c7                	or     %eax,%edi
    shift += 7;
  8041602d1b:	83 c1 07             	add    $0x7,%ecx
    if (!(byte & 0x80))
  8041602d1e:	40 84 f6             	test   %sil,%sil
  8041602d21:	78 e4                	js     8041602d07 <address_by_fname+0x5a1>
  return count;
  8041602d23:	4d 63 c0             	movslq %r8d,%r8
            abbrev_entry += count;
  8041602d26:	4d 01 c4             	add    %r8,%r12
  count  = 0;
  8041602d29:	41 89 dd             	mov    %ebx,%r13d
  shift  = 0;
  8041602d2c:	89 d9                	mov    %ebx,%ecx
  8041602d2e:	4c 89 e2             	mov    %r12,%rdx
  result = 0;
  8041602d31:	41 b8 00 00 00 00    	mov    $0x0,%r8d
    byte = *addr;
  8041602d37:	0f b6 32             	movzbl (%rdx),%esi
    addr++;
  8041602d3a:	48 83 c2 01          	add    $0x1,%rdx
    count++;
  8041602d3e:	41 83 c5 01          	add    $0x1,%r13d
    result |= (byte & 0x7f) << shift;
  8041602d42:	89 f0                	mov    %esi,%eax
  8041602d44:	83 e0 7f             	and    $0x7f,%eax
  8041602d47:	d3 e0                	shl    %cl,%eax
  8041602d49:	41 09 c0             	or     %eax,%r8d
    shift += 7;
  8041602d4c:	83 c1 07             	add    $0x7,%ecx
    if (!(byte & 0x80))
  8041602d4f:	40 84 f6             	test   %sil,%sil
  8041602d52:	78 e3                	js     8041602d37 <address_by_fname+0x5d1>
  return count;
  8041602d54:	4d 63 ed             	movslq %r13d,%r13
            abbrev_entry += count;
  8041602d57:	4d 01 ec             	add    %r13,%r12
          } while (name != 0 || form != 0);
  8041602d5a:	41 09 f8             	or     %edi,%r8d
  8041602d5d:	75 9b                	jne    8041602cfa <address_by_fname+0x594>
  8041602d5f:	e9 22 ff ff ff       	jmpq   8041602c86 <address_by_fname+0x520>

0000008041602d64 <naive_address_by_fname>:

int
naive_address_by_fname(const struct Dwarf_Addrs *addrs, const char *fname,
                       uintptr_t *offset) {
  8041602d64:	55                   	push   %rbp
  8041602d65:	48 89 e5             	mov    %rsp,%rbp
  8041602d68:	41 57                	push   %r15
  8041602d6a:	41 56                	push   %r14
  8041602d6c:	41 55                	push   %r13
  8041602d6e:	41 54                	push   %r12
  8041602d70:	53                   	push   %rbx
  8041602d71:	48 83 ec 48          	sub    $0x48,%rsp
  8041602d75:	48 89 fb             	mov    %rdi,%rbx
  8041602d78:	48 89 7d b0          	mov    %rdi,-0x50(%rbp)
  8041602d7c:	48 89 f7             	mov    %rsi,%rdi
  8041602d7f:	48 89 75 a0          	mov    %rsi,-0x60(%rbp)
  8041602d83:	48 89 55 90          	mov    %rdx,-0x70(%rbp)
  const int flen = strlen(fname);
  8041602d87:	48 b8 eb c2 60 41 80 	movabs $0x804160c2eb,%rax
  8041602d8e:	00 00 00 
  8041602d91:	ff d0                	callq  *%rax
  if (flen == 0)
  8041602d93:	85 c0                	test   %eax,%eax
  8041602d95:	0f 84 73 03 00 00    	je     804160310e <naive_address_by_fname+0x3aa>
    return 0;
  const void *entry = addrs->info_begin;
  8041602d9b:	4c 8b 7b 20          	mov    0x20(%rbx),%r15
  int count         = 0;
  while ((const unsigned char *)entry < addrs->info_end) {
  8041602d9f:	e9 0f 03 00 00       	jmpq   80416030b3 <naive_address_by_fname+0x34f>
      *len  = get_unaligned((uint64_t *)addr + 4, uint64_t);
  8041602da4:	49 8d 77 20          	lea    0x20(%r15),%rsi
  8041602da8:	ba 08 00 00 00       	mov    $0x8,%edx
  8041602dad:	48 8d 7d c8          	lea    -0x38(%rbp),%rdi
  8041602db1:	48 b8 64 c5 60 41 80 	movabs $0x804160c564,%rax
  8041602db8:	00 00 00 
  8041602dbb:	ff d0                	callq  *%rax
  8041602dbd:	48 8b 45 c8          	mov    -0x38(%rbp),%rax
      count = 12;
  8041602dc1:	bb 0c 00 00 00       	mov    $0xc,%ebx
  8041602dc6:	eb 07                	jmp    8041602dcf <naive_address_by_fname+0x6b>
    *len = initial_len;
  8041602dc8:	89 c0                	mov    %eax,%eax
  count       = 4;
  8041602dca:	bb 04 00 00 00       	mov    $0x4,%ebx
    unsigned long len = 0;
    count             = dwarf_entry_len(entry, &len);
    if (count == 0) {
      return -E_BAD_DWARF;
    }
    entry += count;
  8041602dcf:	48 63 db             	movslq %ebx,%rbx
  8041602dd2:	4d 8d 2c 1f          	lea    (%r15,%rbx,1),%r13
    const void *entry_end = entry + len;
  8041602dd6:	4c 01 e8             	add    %r13,%rax
  8041602dd9:	48 89 45 a8          	mov    %rax,-0x58(%rbp)
    // Parse compilation unit header.
    Dwarf_Half version = get_unaligned(entry, Dwarf_Half);
  8041602ddd:	ba 02 00 00 00       	mov    $0x2,%edx
  8041602de2:	4c 89 ee             	mov    %r13,%rsi
  8041602de5:	48 8d 7d c8          	lea    -0x38(%rbp),%rdi
  8041602de9:	48 b8 64 c5 60 41 80 	movabs $0x804160c564,%rax
  8041602df0:	00 00 00 
  8041602df3:	ff d0                	callq  *%rax
    entry += sizeof(Dwarf_Half);
  8041602df5:	49 83 c5 02          	add    $0x2,%r13
    assert(version == 4 || version == 2);
  8041602df9:	0f b7 45 c8          	movzwl -0x38(%rbp),%eax
  8041602dfd:	83 e8 02             	sub    $0x2,%eax
  8041602e00:	66 a9 fd ff          	test   $0xfffd,%ax
  8041602e04:	75 52                	jne    8041602e58 <naive_address_by_fname+0xf4>
    Dwarf_Off abbrev_offset = get_unaligned(entry, uint32_t);
  8041602e06:	ba 04 00 00 00       	mov    $0x4,%edx
  8041602e0b:	4c 89 ee             	mov    %r13,%rsi
  8041602e0e:	48 8d 7d c8          	lea    -0x38(%rbp),%rdi
  8041602e12:	49 be 64 c5 60 41 80 	movabs $0x804160c564,%r14
  8041602e19:	00 00 00 
  8041602e1c:	41 ff d6             	callq  *%r14
  8041602e1f:	44 8b 65 c8          	mov    -0x38(%rbp),%r12d
    entry += count;
  8041602e23:	49 8d 74 1d 00       	lea    0x0(%r13,%rbx,1),%rsi
    Dwarf_Small address_size = get_unaligned(entry++, Dwarf_Small);
  8041602e28:	4c 8d 7e 01          	lea    0x1(%rsi),%r15
  8041602e2c:	ba 01 00 00 00       	mov    $0x1,%edx
  8041602e31:	48 8d 7d c8          	lea    -0x38(%rbp),%rdi
  8041602e35:	41 ff d6             	callq  *%r14
    assert(address_size == 8);
  8041602e38:	80 7d c8 08          	cmpb   $0x8,-0x38(%rbp)
  8041602e3c:	75 4f                	jne    8041602e8d <naive_address_by_fname+0x129>
    // Parse related DIE's
    unsigned abbrev_code          = 0;
    unsigned table_abbrev_code    = 0;
    const void *abbrev_entry      = addrs->abbrev_begin + abbrev_offset;
  8041602e3e:	48 8b 45 b0          	mov    -0x50(%rbp),%rax
  8041602e42:	4c 03 20             	add    (%rax),%r12
  8041602e45:	4c 89 65 98          	mov    %r12,-0x68(%rbp)
                  entry, form,
                  NULL, 0,
                  address_size);
            }
          } else {
            count = dwarf_read_abbrev_entry(
  8041602e49:	49 be 3a 0d 60 41 80 	movabs $0x8041600d3a,%r14
  8041602e50:	00 00 00 
    while (entry < entry_end) {
  8041602e53:	e9 11 02 00 00       	jmpq   8041603069 <naive_address_by_fname+0x305>
    assert(version == 4 || version == 2);
  8041602e58:	48 b9 2e d0 60 41 80 	movabs $0x804160d02e,%rcx
  8041602e5f:	00 00 00 
  8041602e62:	48 ba d9 cf 60 41 80 	movabs $0x804160cfd9,%rdx
  8041602e69:	00 00 00 
  8041602e6c:	be f1 02 00 00       	mov    $0x2f1,%esi
  8041602e71:	48 bf ee cf 60 41 80 	movabs $0x804160cfee,%rdi
  8041602e78:	00 00 00 
  8041602e7b:	b8 00 00 00 00       	mov    $0x0,%eax
  8041602e80:	49 b8 5a 02 60 41 80 	movabs $0x804160025a,%r8
  8041602e87:	00 00 00 
  8041602e8a:	41 ff d0             	callq  *%r8
    assert(address_size == 8);
  8041602e8d:	48 b9 fb cf 60 41 80 	movabs $0x804160cffb,%rcx
  8041602e94:	00 00 00 
  8041602e97:	48 ba d9 cf 60 41 80 	movabs $0x804160cfd9,%rdx
  8041602e9e:	00 00 00 
  8041602ea1:	be f5 02 00 00       	mov    $0x2f5,%esi
  8041602ea6:	48 bf ee cf 60 41 80 	movabs $0x804160cfee,%rdi
  8041602ead:	00 00 00 
  8041602eb0:	b8 00 00 00 00       	mov    $0x0,%eax
  8041602eb5:	49 b8 5a 02 60 41 80 	movabs $0x804160025a,%r8
  8041602ebc:	00 00 00 
  8041602ebf:	41 ff d0             	callq  *%r8
      while ((const unsigned char *)curr_abbrev_entry < addrs->abbrev_end) { // unsafe needs to be
  8041602ec2:	48 8b 45 b0          	mov    -0x50(%rbp),%rax
  8041602ec6:	4c 8b 58 08          	mov    0x8(%rax),%r11
      curr_abbrev_entry = abbrev_entry;
  8041602eca:	48 8b 5d 98          	mov    -0x68(%rbp),%rbx
      unsigned name = 0, form = 0, tag = 0;
  8041602ece:	41 b9 00 00 00 00    	mov    $0x0,%r9d
      while ((const unsigned char *)curr_abbrev_entry < addrs->abbrev_end) { // unsafe needs to be
  8041602ed4:	49 39 db             	cmp    %rbx,%r11
  8041602ed7:	0f 86 e7 00 00 00    	jbe    8041602fc4 <naive_address_by_fname+0x260>
  8041602edd:	48 89 da             	mov    %rbx,%rdx
  count  = 0;
  8041602ee0:	41 b8 00 00 00 00    	mov    $0x0,%r8d
  shift  = 0;
  8041602ee6:	b9 00 00 00 00       	mov    $0x0,%ecx
  result = 0;
  8041602eeb:	be 00 00 00 00       	mov    $0x0,%esi
    byte = *addr;
  8041602ef0:	0f b6 3a             	movzbl (%rdx),%edi
    addr++;
  8041602ef3:	48 83 c2 01          	add    $0x1,%rdx
    count++;
  8041602ef7:	41 83 c0 01          	add    $0x1,%r8d
    result |= (byte & 0x7f) << shift;
